///////////////////////////////////////////////////////////////////////////////
//                                                                            /
// IAR C/C++ Compiler V8.10.3.10338/W32 for 8051        31/Dec/2016  18:04:46 /
// Copyright 2004-2011 IAR Systems AB.                                        /
//                                                                            /
//    Core               =  plain                                             /
//    Code model         =  banked                                            /
//    Data model         =  large                                             /
//    Calling convention =  xdata reentrant                                   /
//    Constant location  =  data_rom                                          /
//    Dptr setup         =  1,16                                              /
//    Source file        =  C:\Users\Administrator\Desktop\28\ZStack-CC2530-2 /
//                          .3.0-1.4.0\Projects\zstack\Samples\SampleApp\Sour /
//                          ce\EndPoint.c                                     /
//    Command line       =  -f C:\Users\Administrator\Desktop\28\ZStack-CC253 /
//                          0-2.3.0-1.4.0\Projects\zstack\Samples\SampleApp\C /
//                          C2530DB\..\..\..\Tools\CC2530DB\f8wEndev.cfg      /
//                          (-DCPU32MHZ -DROOT=__near_func -DBLINK_LEDS) -f   /
//                          C:\Users\Administrator\Desktop\28\ZStack-CC2530-2 /
//                          .3.0-1.4.0\Projects\zstack\Samples\SampleApp\CC25 /
//                          30DB\..\..\..\Tools\CC2530DB\f8wConfig.cfg        /
//                          (-DSECURE=0 -DZG_SECURE_DYNAMIC=0 -DREFLECTOR     /
//                          -DDEFAULT_CHANLIST=0x00000800                     /
//                          -DZDAPP_CONFIG_PAN_ID=0xFFF1                      /
//                          -DNWK_START_DELAY=100 -DEXTENDED_JOINING_RANDOM_M /
//                          ASK=0x007F -DBEACON_REQUEST_DELAY=100             /
//                          -DBEACON_REQ_DELAY_MASK=0x00FF                    /
//                          -DROUTE_EXPIRY_TIME=30 -DAPSC_ACK_WAIT_DURATION_P /
//                          OLLED=3000 -DNWK_INDIRECT_MSG_TIMEOUT=7           /
//                          -DMAX_RREQ_ENTRIES=8 -DAPSC_MAX_FRAME_RETRIES=3   /
//                          -DNWK_MAX_DATA_RETRIES=2                          /
//                          -DMAX_POLL_FAILURE_RETRIES=2 -DMAX_BCAST=9        /
//                          -DAPS_MAX_GROUPS=16 -DMAX_RTG_ENTRIES=40          /
//                          -DNWK_MAX_BINDING_ENTRIES=4                       /
//                          -DMAX_BINDING_CLUSTER_IDS=4                       /
//                          "-DDEFAULT_KEY={0x01, 0x03, 0x05, 0x07, 0x09,     /
//                          0x0B, 0x0D, 0x0F, 0x00, 0x02, 0x04, 0x06, 0x08,   /
//                          0x0A, 0x0C, 0x0D}" -DMAC_MAX_FRAME_SIZE=116       /
//                          "-DCONST=const __code" -DGENERIC=__generic        /
//                          -DRFD_RCVC_ALWAYS_ON=FALSE -DPOLL_RATE=1000       /
//                          -DQUEUED_POLL_RATE=100 -DRESPONSE_POLL_RATE=100)  /
//                          -DREJOIN_POLL_RATE=440 C:\Users\Administrator\Des /
//                          ktop\28\ZStack-CC2530-2.3.0-1.4.0\Projects\zstack /
//                          \Samples\SampleApp\Source\EndPoint.c -D           /
//                          ZIGBEEPRO -D NWK_AUTO_POLL -D ZTOOL_P1 -D         /
//                          xMT_TASK -D xMT_SYS_FUNC -D xMT_ZDO_FUNC -D       /
//                          LCD_SUPPORTED=DEBUG -lC                           /
//                          C:\Users\Administrator\Desktop\28\ZStack-CC2530-2 /
//                          .3.0-1.4.0\Projects\zstack\Samples\SampleApp\CC25 /
//                          30DB\EndDeviceEB-Pro\List\ -lA                    /
//                          C:\Users\Administrator\Desktop\28\ZStack-CC2530-2 /
//                          .3.0-1.4.0\Projects\zstack\Samples\SampleApp\CC25 /
//                          30DB\EndDeviceEB-Pro\List\ --diag_suppress        /
//                          Pe001,Pa010 -o C:\Users\Administrator\Desktop\28\ /
//                          ZStack-CC2530-2.3.0-1.4.0\Projects\zstack\Samples /
//                          \SampleApp\CC2530DB\EndDeviceEB-Pro\Obj\ -e       /
//                          --debug --core=plain --dptr=16,1                  /
//                          --data_model=large --code_model=banked            /
//                          --calling_convention=xdata_reentrant              /
//                          --place_constants=data_rom --nr_virtual_regs 16   /
//                          -I C:\Users\Administrator\Desktop\28\ZStack-CC253 /
//                          0-2.3.0-1.4.0\Projects\zstack\Samples\SampleApp\C /
//                          C2530DB\ -I C:\Users\Administrator\Desktop\28\ZSt /
//                          ack-CC2530-2.3.0-1.4.0\Projects\zstack\Samples\Sa /
//                          mpleApp\CC2530DB\..\SOURCE\ -I                    /
//                          C:\Users\Administrator\Desktop\28\ZStack-CC2530-2 /
//                          .3.0-1.4.0\Projects\zstack\Samples\SampleApp\CC25 /
//                          30DB\..\..\..\ZMAIN\TI2530DB\ -I                  /
//                          C:\Users\Administrator\Desktop\28\ZStack-CC2530-2 /
//                          .3.0-1.4.0\Projects\zstack\Samples\SampleApp\CC25 /
//                          30DB\..\..\..\..\..\COMPONENTS\MT\ -I             /
//                          C:\Users\Administrator\Desktop\28\ZStack-CC2530-2 /
//                          .3.0-1.4.0\Projects\zstack\Samples\SampleApp\CC25 /
//                          30DB\..\..\..\..\..\COMPONENTS\HAL\INCLUDE\ -I    /
//                          C:\Users\Administrator\Desktop\28\ZStack-CC2530-2 /
//                          .3.0-1.4.0\Projects\zstack\Samples\SampleApp\CC25 /
//                          30DB\..\..\..\..\..\COMPONENTS\HAL\TARGET\CC2530E /
//                          B\ -I C:\Users\Administrator\Desktop\28\ZStack-CC /
//                          2530-2.3.0-1.4.0\Projects\zstack\Samples\SampleAp /
//                          p\CC2530DB\..\..\..\..\..\COMPONENTS\OSAL\MCU\CCS /
//                          OC\ -I C:\Users\Administrator\Desktop\28\ZStack-C /
//                          C2530-2.3.0-1.4.0\Projects\zstack\Samples\SampleA /
//                          pp\CC2530DB\..\..\..\..\..\COMPONENTS\OSAL\INCLUD /
//                          E\ -I C:\Users\Administrator\Desktop\28\ZStack-CC /
//                          2530-2.3.0-1.4.0\Projects\zstack\Samples\SampleAp /
//                          p\CC2530DB\..\..\..\..\..\COMPONENTS\STACK\AF\    /
//                          -I C:\Users\Administrator\Desktop\28\ZStack-CC253 /
//                          0-2.3.0-1.4.0\Projects\zstack\Samples\SampleApp\C /
//                          C2530DB\..\..\..\..\..\COMPONENTS\STACK\NWK\ -I   /
//                          C:\Users\Administrator\Desktop\28\ZStack-CC2530-2 /
//                          .3.0-1.4.0\Projects\zstack\Samples\SampleApp\CC25 /
//                          30DB\..\..\..\..\..\COMPONENTS\STACK\SEC\ -I      /
//                          C:\Users\Administrator\Desktop\28\ZStack-CC2530-2 /
//                          .3.0-1.4.0\Projects\zstack\Samples\SampleApp\CC25 /
//                          30DB\..\..\..\..\..\COMPONENTS\STACK\SAPI\ -I     /
//                          C:\Users\Administrator\Desktop\28\ZStack-CC2530-2 /
//                          .3.0-1.4.0\Projects\zstack\Samples\SampleApp\CC25 /
//                          30DB\..\..\..\..\..\COMPONENTS\STACK\SYS\ -I      /
//                          C:\Users\Administrator\Desktop\28\ZStack-CC2530-2 /
//                          .3.0-1.4.0\Projects\zstack\Samples\SampleApp\CC25 /
//                          30DB\..\..\..\..\..\COMPONENTS\STACK\ZDO\ -I      /
//                          C:\Users\Administrator\Desktop\28\ZStack-CC2530-2 /
//                          .3.0-1.4.0\Projects\zstack\Samples\SampleApp\CC25 /
//                          30DB\..\..\..\..\..\COMPONENTS\ZMAC\F8W\ -I       /
//                          C:\Users\Administrator\Desktop\28\ZStack-CC2530-2 /
//                          .3.0-1.4.0\Projects\zstack\Samples\SampleApp\CC25 /
//                          30DB\..\..\..\..\..\COMPONENTS\ZMAC\ -I           /
//                          C:\Users\Administrator\Desktop\28\ZStack-CC2530-2 /
//                          .3.0-1.4.0\Projects\zstack\Samples\SampleApp\CC25 /
//                          30DB\..\..\..\..\..\COMPONENTS\SERVICES\SADDR\    /
//                          -I C:\Users\Administrator\Desktop\28\ZStack-CC253 /
//                          0-2.3.0-1.4.0\Projects\zstack\Samples\SampleApp\C /
//                          C2530DB\..\..\..\..\..\COMPONENTS\SERVICES\SDATA\ /
//                           -I C:\Users\Administrator\Desktop\28\ZStack-CC25 /
//                          30-2.3.0-1.4.0\Projects\zstack\Samples\SampleApp\ /
//                          CC2530DB\..\..\..\..\..\COMPONENTS\MAC\INCLUDE\   /
//                          -I C:\Users\Administrator\Desktop\28\ZStack-CC253 /
//                          0-2.3.0-1.4.0\Projects\zstack\Samples\SampleApp\C /
//                          C2530DB\..\..\..\..\..\COMPONENTS\MAC\HIGH_LEVEL\ /
//                           -I C:\Users\Administrator\Desktop\28\ZStack-CC25 /
//                          30-2.3.0-1.4.0\Projects\zstack\Samples\SampleApp\ /
//                          CC2530DB\..\..\..\..\..\COMPONENTS\MAC\LOW_LEVEL\ /
//                          srf04\ -I C:\Users\Administrator\Desktop\28\ZStac /
//                          k-CC2530-2.3.0-1.4.0\Projects\zstack\Samples\Samp /
//                          leApp\CC2530DB\..\..\..\..\..\COMPONENTS\MAC\LOW_ /
//                          LEVEL\srf04\SINGLE_CHIP\ -Ohz                     /
//                          --require_prototypes                              /
//    List file          =  C:\Users\Administrator\Desktop\28\ZStack-CC2530-2 /
//                          .3.0-1.4.0\Projects\zstack\Samples\SampleApp\CC25 /
//                          30DB\EndDeviceEB-Pro\List\EndPoint.s51            /
//                                                                            /
//                                                                            /
///////////////////////////////////////////////////////////////////////////////

        NAME EndPoint

        RTMODEL "__SystemLibrary", "CLib"
        RTMODEL "__calling_convention", "xdata_reentrant"
        RTMODEL "__code_model", "banked"
        RTMODEL "__core", "plain"
        RTMODEL "__data_model", "large"
        RTMODEL "__dptr_size", "16"
        RTMODEL "__extended_stack", "disabled"
        RTMODEL "__location_for_constants", "data"
        RTMODEL "__number_of_dptrs", "1"
        RTMODEL "__rt_version", "1"

        RSEG DOVERLAY:DATA:NOROOT(0)
        RSEG IOVERLAY:IDATA:NOROOT(0)
        RSEG ISTACK:IDATA:NOROOT(0)
        RSEG PSTACK:XDATA:NOROOT(0)
        RSEG XSTACK:XDATA:NOROOT(0)

        EXTERN ?ALLOC_XSTACK8
        EXTERN ?BANKED_ENTER_XDATA
        EXTERN ?BANKED_LEAVE_XDATA
        EXTERN ?BDISPATCH
        EXTERN ?BRET
        EXTERN ?DEALLOC_XSTACK8
        EXTERN ?FLT_ADD
        EXTERN ?FLT_DIV
        EXTERN ?FLT_GE
        EXTERN ?FLT_LT
        EXTERN ?FLT_MUL
        EXTERN ?FLT_SUB
        EXTERN ?L_MOV_TO_X
        EXTERN ?L_MOV_X
        EXTERN ?PUSH_XSTACK8_X_THREE
        EXTERN ?PUSH_XSTACK_I_FOUR
        EXTERN ?PUSH_XSTACK_I_ONE
        EXTERN ?PUSH_XSTACK_I_THREE
        EXTERN ?PUSH_XSTACK_I_TWO
        EXTERN ?R2345_FLT_TO_L
        EXTERN ?S_DIV_MOD
        EXTERN ?UL_DIV_MOD
        EXTERN ?UL_TO_FLT
        EXTERN ?US_SHR
        EXTERN ?V0
        EXTERN ?XLOAD_R2345
        EXTERN ?XSP
        EXTERN __INIT_XDATA_I
        EXTERN __INIT_XDATA_Z

        PUBLIC ??ADCinital?relay
        FUNCTION ??ADCinital?relay,0203H
        PUBLIC ??SampleApp_HandleKeys?relay
        FUNCTION ??SampleApp_HandleKeys?relay,0203H
        PUBLIC ??SampleApp_Init?relay
        FUNCTION ??SampleApp_Init?relay,0203H
        PUBLIC ??SampleApp_MessageMSGCB?relay
        FUNCTION ??SampleApp_MessageMSGCB?relay,0203H
        PUBLIC ??SampleApp_ProcessEvent?relay
        FUNCTION ??SampleApp_ProcessEvent?relay,0203H
        PUBLIC ??SampleApp_Send_P2P_Message?relay
        FUNCTION ??SampleApp_Send_P2P_Message?relay,0203H
        PUBLIC ??callback?relay
        FUNCTION ??callback?relay,0203H
        PUBLIC ??get_CO2_Message?relay
        FUNCTION ??get_CO2_Message?relay,0203H
        PUBLIC ADC
        PUBWEAK ADCCFG
        PUBWEAK ADCCON1
        PUBWEAK ADCCON3
        PUBWEAK ADCH
        PUBWEAK ADCL
        PUBLIC ADCinital
        FUNCTION ADCinital,0203H
        ARGFRAME XSTACK, 16, STACK
        ARGFRAME IOVERLAY, 0, STATIC
        ARGFRAME DOVERLAY, 0, STATIC
        PUBLIC CO2
        PUBLIC CO2Curve
        PUBLIC Humidity
        PUBWEAK P0DIR
        PUBWEAK P0SEL
        PUBLIC SampleAppFlashCounter
        PUBLIC SampleAppPeriodicCounter
        PUBLIC SampleApp_ClusterList
        PUBLIC SampleApp_Group
        PUBLIC SampleApp_HandleKeys
        FUNCTION SampleApp_HandleKeys,0203H
        ARGFRAME XSTACK, 0, STACK
        PUBLIC SampleApp_Init
        FUNCTION SampleApp_Init,021203H
        ARGFRAME XSTACK, 0, STACK
        LOCFRAME XSTACK, 10, STACK
        PUBLIC SampleApp_MessageMSGCB
        FUNCTION SampleApp_MessageMSGCB,0203H
        ARGFRAME XSTACK, 12, STACK
        ARGFRAME IOVERLAY, 0, STATIC
        ARGFRAME DOVERLAY, 0, STATIC
        LOCFRAME ISTACK, 2, STACK
        PUBLIC SampleApp_NwkState
        PUBLIC SampleApp_P2P_DstAddr
        PUBLIC SampleApp_Periodic_DstAddr
        PUBLIC SampleApp_ProcessEvent
        FUNCTION SampleApp_ProcessEvent,021203H
        ARGFRAME XSTACK, 0, STACK
        LOCFRAME XSTACK, 12, STACK
        PUBLIC SampleApp_Send_P2P_Message
        FUNCTION SampleApp_Send_P2P_Message,021203H
        ARGFRAME XSTACK, 12, STACK
        ARGFRAME IOVERLAY, 0, STATIC
        ARGFRAME DOVERLAY, 0, STATIC
        LOCFRAME XSTACK, 35, STACK
        PUBLIC SampleApp_SimpleDesc
        PUBLIC SampleApp_TaskID
        PUBLIC SampleApp_TransID
        PUBLIC SampleApp_epDesc
        PUBLIC Temp
        PUBWEAK _A_P1
        PUBWEAK _A_TCON
        PUBWEAK __Constant_2710
        PUBWEAK __Constant_3e8
        PUBWEAK __Constant_3e87ae14
        PUBWEAK __Constant_3ea5e355
        PUBWEAK __Constant_40533333
        PUBWEAK __Constant_41200000
        PUBWEAK __Constant_4610a3d7
        PUBWEAK __Constant_64
        PUBWEAK __Constant_a
        PUBLIC addr
        PUBLIC callback
        FUNCTION callback,0203H
        ARGFRAME XSTACK, 0, STACK
        PUBLIC cmd
        PUBLIC count
        PUBLIC fre
        PUBLIC get_CO2_Message
        FUNCTION get_CO2_Message,021203H
        ARGFRAME XSTACK, 26, STACK
        ARGFRAME IOVERLAY, 0, STATIC
        ARGFRAME DOVERLAY, 0, STATIC
        LOCFRAME XSTACK, 20, STACK
        PUBLIC i
        PUBLIC light
        PUBLIC strTemp
        PUBLIC volt
        
        CFI Names cfiNames0
        CFI StackFrame CFA_SP SP IDATA
        CFI StackFrame CFA_PSP16 PSP16 XDATA
        CFI StackFrame CFA_XSP16 XSP16 XDATA
        CFI StaticOverlayFrame CFA_IOVERLAY IOVERLAY
        CFI StaticOverlayFrame CFA_DOVERLAY DOVERLAY
        CFI Resource `PSW.CY`:1, `B.BR0`:1, `B.BR1`:1, `B.BR2`:1, `B.BR3`:1
        CFI Resource `B.BR4`:1, `B.BR5`:1, `B.BR6`:1, `B.BR7`:1, `VB.BR8`:1
        CFI Resource `VB.BR9`:1, `VB.BR10`:1, `VB.BR11`:1, `VB.BR12`:1
        CFI Resource `VB.BR13`:1, `VB.BR14`:1, `VB.BR15`:1, VB:8, B:8, A:8
        CFI Resource PSW:8, DPL0:8, DPH0:8, R0:8, R1:8, R2:8, R3:8, R4:8, R5:8
        CFI Resource R6:8, R7:8, V0:8, V1:8, V2:8, V3:8, V4:8, V5:8, V6:8, V7:8
        CFI Resource V8:8, V9:8, V10:8, V11:8, V12:8, V13:8, V14:8, V15:8, SP:8
        CFI Resource PSPH:8, PSPL:8, PSP16:16, XSPH:8, XSPL:8, XSP16:16
        CFI VirtualResource ?RET:24
        CFI Resource ?BRET_EXT:8
        CFI VirtualResource ?RET_HIGH:8, ?RET_LOW:8
        CFI ResourceParts PSP16 PSPH, PSPL
        CFI ResourceParts XSP16 XSPH, XSPL
        CFI ResourceParts ?RET ?BRET_EXT, ?RET_HIGH, ?RET_LOW
        CFI EndNames cfiNames0
        
        CFI Common cfiCommon0 Using cfiNames0
        CFI CodeAlign 1
        CFI DataAlign -1
        CFI ReturnAddress ?RET CODE
        CFI CFA_DOVERLAY Used
        CFI CFA_IOVERLAY Used
        CFI CFA_SP SP+-3
        CFI CFA_PSP16 PSP16+0
        CFI CFA_XSP16 XSP16+0
        CFI `PSW.CY` SameValue
        CFI `B.BR0` SameValue
        CFI `B.BR1` SameValue
        CFI `B.BR2` SameValue
        CFI `B.BR3` SameValue
        CFI `B.BR4` SameValue
        CFI `B.BR5` SameValue
        CFI `B.BR6` SameValue
        CFI `B.BR7` SameValue
        CFI `VB.BR8` SameValue
        CFI `VB.BR9` SameValue
        CFI `VB.BR10` SameValue
        CFI `VB.BR11` SameValue
        CFI `VB.BR12` SameValue
        CFI `VB.BR13` SameValue
        CFI `VB.BR14` SameValue
        CFI `VB.BR15` SameValue
        CFI VB SameValue
        CFI B Undefined
        CFI A Undefined
        CFI PSW SameValue
        CFI DPL0 SameValue
        CFI DPH0 SameValue
        CFI R0 Undefined
        CFI R1 Undefined
        CFI R2 Undefined
        CFI R3 Undefined
        CFI R4 Undefined
        CFI R5 Undefined
        CFI R6 SameValue
        CFI R7 SameValue
        CFI V0 SameValue
        CFI V1 SameValue
        CFI V2 SameValue
        CFI V3 SameValue
        CFI V4 SameValue
        CFI V5 SameValue
        CFI V6 SameValue
        CFI V7 SameValue
        CFI V8 SameValue
        CFI V9 SameValue
        CFI V10 SameValue
        CFI V11 SameValue
        CFI V12 SameValue
        CFI V13 SameValue
        CFI V14 SameValue
        CFI V15 SameValue
        CFI PSPH Undefined
        CFI PSPL Undefined
        CFI XSPH Undefined
        CFI XSPL Undefined
        CFI ?RET Concat
        CFI ?BRET_EXT Frame(CFA_SP, 3)
        CFI ?RET_HIGH Frame(CFA_SP, 2)
        CFI ?RET_LOW Frame(CFA_SP, 1)
        CFI EndCommon cfiCommon0
        
        
        CFI Common cfiCommon1 Using cfiNames0
        CFI CodeAlign 1
        CFI DataAlign -1
        CFI ReturnAddress ?RET CODE
        CFI CFA_DOVERLAY Used
        CFI CFA_IOVERLAY Used
        CFI CFA_SP SP+-2
        CFI CFA_PSP16 PSP16+0
        CFI CFA_XSP16 XSP16+0
        CFI `PSW.CY` SameValue
        CFI `B.BR0` SameValue
        CFI `B.BR1` SameValue
        CFI `B.BR2` SameValue
        CFI `B.BR3` SameValue
        CFI `B.BR4` SameValue
        CFI `B.BR5` SameValue
        CFI `B.BR6` SameValue
        CFI `B.BR7` SameValue
        CFI `VB.BR8` SameValue
        CFI `VB.BR9` SameValue
        CFI `VB.BR10` SameValue
        CFI `VB.BR11` SameValue
        CFI `VB.BR12` SameValue
        CFI `VB.BR13` SameValue
        CFI `VB.BR14` SameValue
        CFI `VB.BR15` SameValue
        CFI VB SameValue
        CFI B SameValue
        CFI A SameValue
        CFI PSW SameValue
        CFI DPL0 SameValue
        CFI DPH0 SameValue
        CFI R0 SameValue
        CFI R1 SameValue
        CFI R2 SameValue
        CFI R3 SameValue
        CFI R4 SameValue
        CFI R5 SameValue
        CFI R6 SameValue
        CFI R7 SameValue
        CFI V0 SameValue
        CFI V1 SameValue
        CFI V2 SameValue
        CFI V3 SameValue
        CFI V4 SameValue
        CFI V5 SameValue
        CFI V6 SameValue
        CFI V7 SameValue
        CFI V8 SameValue
        CFI V9 SameValue
        CFI V10 SameValue
        CFI V11 SameValue
        CFI V12 SameValue
        CFI V13 SameValue
        CFI V14 SameValue
        CFI V15 SameValue
        CFI PSPH Undefined
        CFI PSPL Undefined
        CFI XSPH Undefined
        CFI XSPL Undefined
        CFI ?RET Concat
        CFI ?BRET_EXT SameValue
        CFI ?RET_HIGH Frame(CFA_SP, 2)
        CFI ?RET_LOW Frame(CFA_SP, 1)
        CFI EndCommon cfiCommon1
        
MT_UartInit         SYMBOL "MT_UartInit"
MT_UartRegisterTaskID SYMBOL "MT_UartRegisterTaskID"
osal_rand           SYMBOL "osal_rand"
osal_start_timerEx  SYMBOL "osal_start_timerEx"
afRegister          SYMBOL "afRegister"
RegisterForKeys     SYMBOL "RegisterForKeys"
B_LUX_Init          SYMBOL "B_LUX_Init"
HalLcdWriteString   SYMBOL "HalLcdWriteString"
osal_msg_receive    SYMBOL "osal_msg_receive"
osal_msg_deallocate SYMBOL "osal_msg_deallocate"
DHT11               SYMBOL "DHT11"
osal_memcpy         SYMBOL "osal_memcpy"
B_LUX_GetLux        SYMBOL "B_LUX_GetLux"
AF_DataRequest      SYMBOL "AF_DataRequest"
osal_memset         SYMBOL "osal_memset"
pow                 SYMBOL "pow"
??AF_DataRequest?relay SYMBOL "?relay", AF_DataRequest
??B_LUX_GetLux?relay SYMBOL "?relay", B_LUX_GetLux
??B_LUX_Init?relay  SYMBOL "?relay", B_LUX_Init
??DHT11?relay       SYMBOL "?relay", DHT11
??HalLcdWriteString?relay SYMBOL "?relay", HalLcdWriteString
??MT_UartInit?relay SYMBOL "?relay", MT_UartInit
??MT_UartRegisterTaskID?relay SYMBOL "?relay", MT_UartRegisterTaskID
??RegisterForKeys?relay SYMBOL "?relay", RegisterForKeys
??afRegister?relay  SYMBOL "?relay", afRegister
??osal_memcpy?relay SYMBOL "?relay", osal_memcpy
??osal_memset?relay SYMBOL "?relay", osal_memset
??osal_msg_deallocate?relay SYMBOL "?relay", osal_msg_deallocate
??osal_msg_receive?relay SYMBOL "?relay", osal_msg_receive
??osal_rand?relay   SYMBOL "?relay", osal_rand
??osal_start_timerEx?relay SYMBOL "?relay", osal_start_timerEx
??pow?relay         SYMBOL "?relay", pow
ADCinital           SYMBOL "ADCinital"
??ADCinital?relay   SYMBOL "?relay", ADCinital
SampleApp_HandleKeys SYMBOL "SampleApp_HandleKeys"
??SampleApp_HandleKeys?relay SYMBOL "?relay", SampleApp_HandleKeys
SampleApp_Init      SYMBOL "SampleApp_Init"
??SampleApp_Init?relay SYMBOL "?relay", SampleApp_Init
SampleApp_MessageMSGCB SYMBOL "SampleApp_MessageMSGCB"
??SampleApp_MessageMSGCB?relay SYMBOL "?relay", SampleApp_MessageMSGCB
SampleApp_ProcessEvent SYMBOL "SampleApp_ProcessEvent"
??SampleApp_ProcessEvent?relay SYMBOL "?relay", SampleApp_ProcessEvent
SampleApp_Send_P2P_Message SYMBOL "SampleApp_Send_P2P_Message"
??SampleApp_Send_P2P_Message?relay SYMBOL "?relay", SampleApp_Send_P2P_Message
callback            SYMBOL "callback"
??callback?relay    SYMBOL "?relay", callback
get_CO2_Message     SYMBOL "get_CO2_Message"
??get_CO2_Message?relay SYMBOL "?relay", get_CO2_Message

        EXTERN MT_UartInit
        FUNCTION MT_UartInit,0202H
        ARGFRAME ISTACK, 0, STACK
        ARGFRAME PSTACK, 0, STACK
        ARGFRAME XSTACK, 10, STACK
        ARGFRAME IOVERLAY, 0, STATIC
        ARGFRAME DOVERLAY, 0, STATIC
        EXTERN MT_UartRegisterTaskID
        FUNCTION MT_UartRegisterTaskID,0202H
        ARGFRAME ISTACK, 0, STACK
        ARGFRAME PSTACK, 0, STACK
        ARGFRAME XSTACK, 10, STACK
        ARGFRAME IOVERLAY, 0, STATIC
        ARGFRAME DOVERLAY, 0, STATIC
        EXTERN osal_rand
        FUNCTION osal_rand,0202H
        ARGFRAME ISTACK, 0, STACK
        ARGFRAME PSTACK, 0, STACK
        ARGFRAME XSTACK, 12, STACK
        ARGFRAME IOVERLAY, 0, STATIC
        ARGFRAME DOVERLAY, 0, STATIC
        EXTERN osal_start_timerEx
        FUNCTION osal_start_timerEx,0202H
        ARGFRAME ISTACK, 0, STACK
        ARGFRAME PSTACK, 0, STACK
        ARGFRAME XSTACK, 12, STACK
        ARGFRAME IOVERLAY, 0, STATIC
        ARGFRAME DOVERLAY, 0, STATIC
        EXTERN afRegister
        FUNCTION afRegister,0202H
        ARGFRAME ISTACK, 0, STACK
        ARGFRAME PSTACK, 0, STACK
        ARGFRAME XSTACK, 10, STACK
        ARGFRAME IOVERLAY, 0, STATIC
        ARGFRAME DOVERLAY, 0, STATIC
        EXTERN RegisterForKeys
        FUNCTION RegisterForKeys,0202H
        ARGFRAME ISTACK, 0, STACK
        ARGFRAME PSTACK, 0, STACK
        ARGFRAME XSTACK, 10, STACK
        ARGFRAME IOVERLAY, 0, STATIC
        ARGFRAME DOVERLAY, 0, STATIC
        EXTERN B_LUX_Init
        FUNCTION B_LUX_Init,0202H
        ARGFRAME ISTACK, 0, STACK
        ARGFRAME PSTACK, 0, STACK
        ARGFRAME XSTACK, 10, STACK
        ARGFRAME IOVERLAY, 0, STATIC
        ARGFRAME DOVERLAY, 0, STATIC
        EXTERN HalLcdWriteString
        FUNCTION HalLcdWriteString,0202H
        ARGFRAME ISTACK, 0, STACK
        ARGFRAME PSTACK, 0, STACK
        ARGFRAME XSTACK, 26, STACK
        ARGFRAME IOVERLAY, 0, STATIC
        ARGFRAME DOVERLAY, 0, STATIC
        EXTERN osal_msg_receive
        FUNCTION osal_msg_receive,0202H
        ARGFRAME ISTACK, 0, STACK
        ARGFRAME PSTACK, 0, STACK
        ARGFRAME XSTACK, 12, STACK
        ARGFRAME IOVERLAY, 0, STATIC
        ARGFRAME DOVERLAY, 0, STATIC
        EXTERN osal_msg_deallocate
        FUNCTION osal_msg_deallocate,0202H
        ARGFRAME ISTACK, 0, STACK
        ARGFRAME PSTACK, 0, STACK
        ARGFRAME XSTACK, 12, STACK
        ARGFRAME IOVERLAY, 0, STATIC
        ARGFRAME DOVERLAY, 0, STATIC
        EXTERN DHT11
        FUNCTION DHT11,0202H
        ARGFRAME ISTACK, 0, STACK
        ARGFRAME PSTACK, 0, STACK
        ARGFRAME XSTACK, 26, STACK
        ARGFRAME IOVERLAY, 0, STATIC
        ARGFRAME DOVERLAY, 0, STATIC
        EXTERN osal_memcpy
        FUNCTION osal_memcpy,0202H
        ARGFRAME ISTACK, 0, STACK
        ARGFRAME PSTACK, 0, STACK
        ARGFRAME XSTACK, 29, STACK
        ARGFRAME IOVERLAY, 0, STATIC
        ARGFRAME DOVERLAY, 0, STATIC
        EXTERN B_LUX_GetLux
        FUNCTION B_LUX_GetLux,0202H
        ARGFRAME ISTACK, 0, STACK
        ARGFRAME PSTACK, 0, STACK
        ARGFRAME XSTACK, 26, STACK
        ARGFRAME IOVERLAY, 0, STATIC
        ARGFRAME DOVERLAY, 0, STATIC
        EXTERN AF_DataRequest
        FUNCTION AF_DataRequest,0202H
        ARGFRAME ISTACK, 0, STACK
        ARGFRAME PSTACK, 0, STACK
        ARGFRAME XSTACK, 35, STACK
        ARGFRAME IOVERLAY, 0, STATIC
        ARGFRAME DOVERLAY, 0, STATIC
        EXTERN osal_memset
        FUNCTION osal_memset,0202H
        ARGFRAME ISTACK, 0, STACK
        ARGFRAME PSTACK, 0, STACK
        ARGFRAME XSTACK, 26, STACK
        ARGFRAME IOVERLAY, 0, STATIC
        ARGFRAME DOVERLAY, 0, STATIC
        EXTERN pow
        FUNCTION pow,010202H
        ARGFRAME ISTACK, 0, STACK
        ARGFRAME PSTACK, 0, STACK
        ARGFRAME XSTACK, 20, STACK
        ARGFRAME IOVERLAY, 0, STATIC
        ARGFRAME DOVERLAY, 0, STATIC
        EXTERN ??AF_DataRequest?relay
        FUNCTION ??AF_DataRequest?relay,00H
        EXTERN ??B_LUX_GetLux?relay
        FUNCTION ??B_LUX_GetLux?relay,00H
        EXTERN ??B_LUX_Init?relay
        FUNCTION ??B_LUX_Init?relay,00H
        EXTERN ??DHT11?relay
        FUNCTION ??DHT11?relay,00H
        EXTERN ??HalLcdWriteString?relay
        FUNCTION ??HalLcdWriteString?relay,00H
        EXTERN ??MT_UartInit?relay
        FUNCTION ??MT_UartInit?relay,00H
        EXTERN ??MT_UartRegisterTaskID?relay
        FUNCTION ??MT_UartRegisterTaskID?relay,00H
        EXTERN ??RegisterForKeys?relay
        FUNCTION ??RegisterForKeys?relay,00H
        EXTERN ??afRegister?relay
        FUNCTION ??afRegister?relay,00H
        EXTERN ??osal_memcpy?relay
        FUNCTION ??osal_memcpy?relay,00H
        EXTERN ??osal_memset?relay
        FUNCTION ??osal_memset?relay,00H
        EXTERN ??osal_msg_deallocate?relay
        FUNCTION ??osal_msg_deallocate?relay,00H
        EXTERN ??osal_msg_receive?relay
        FUNCTION ??osal_msg_receive?relay,00H
        EXTERN ??osal_rand?relay
        FUNCTION ??osal_rand?relay,00H
        EXTERN ??osal_start_timerEx?relay
        FUNCTION ??osal_start_timerEx?relay,00H
        EXTERN ??pow?relay
        FUNCTION ??pow?relay,00H
        EXTERN shidu_ge
        EXTERN shidu_shi
        EXTERN wendu_ge
        EXTERN wendu_shi

// C:\Users\Administrator\Desktop\28\ZStack-CC2530-2.3.0-1.4.0\Projects\zstack\Samples\SampleApp\Source\EndPoint.c
//    1 
//    2 
//    3 /*********************************************************************
//    4  * INCLUDES
//    5  */
//    6 #include "OSAL.h"
//    7 #include "ZGlobals.h"
//    8 #include "AF.h"
//    9 #include "aps_groups.h"
//   10 #include "ZDApp.h"
//   11 
//   12 #include "SampleApp.h"
//   13 #include "SampleAppHw.h"
//   14 
//   15 #include "OnBoard.h"

        ASEGN SFR_AN:DATA:NOROOT,088H
// union <unnamed> volatile __sfr _A_TCON
_A_TCON:
        DATA8
        DS 1

        ASEGN SFR_AN:DATA:NOROOT,090H
// union <unnamed> volatile __sfr _A_P1
_A_P1:
        DATA8
        DS 1

        ASEGN SFR_AN:DATA:NOROOT,0b4H
// unsigned char volatile __sfr ADCCON1
ADCCON1:
        DATA8
        DS 1

        ASEGN SFR_AN:DATA:NOROOT,0b6H
// unsigned char volatile __sfr ADCCON3
ADCCON3:
        DATA8
        DS 1

        ASEGN SFR_AN:DATA:NOROOT,0baH
// unsigned char volatile __sfr ADCL
ADCL:
        DATA8
        DS 1

        ASEGN SFR_AN:DATA:NOROOT,0bbH
// unsigned char volatile __sfr ADCH
ADCH:
        DATA8
        DS 1

        ASEGN SFR_AN:DATA:NOROOT,0f2H
// unsigned char volatile __sfr ADCCFG
ADCCFG:
        DATA8
        DS 1

        ASEGN SFR_AN:DATA:NOROOT,0f3H
// unsigned char volatile __sfr P0SEL
P0SEL:
        DATA8
        DS 1

        ASEGN SFR_AN:DATA:NOROOT,0fdH
// unsigned char volatile __sfr P0DIR
P0DIR:
        DATA8
        DS 1
//   16 
//   17 /* HAL */
//   18 #include "hal_lcd.h"
//   19 #include "hal_led.h"
//   20 #include "hal_key.h"
//   21 #include "MT_UART.h"
//   22 #include "MT_APP.h"
//   23 #include "MT.h"
//   24 #include "DHT11.h"
//   25 #include "light.h"
//   26 #include <math.h>
//   27 /*********************************************************************
//   28  * GLOBAL VARIABLES
//   29  */
//   30 byte i; 

        RSEG XDATA_Z:XDATA:NOROOT(0)
        DATA16
//   31 int16 CO2;
CO2:
        DS 2
        REQUIRE __INIT_XDATA_Z

        RSEG XDATA_Z:XDATA:NOROOT(0)
        DATA32
//   32 float  ADC=0;
ADC:
        DS 4
        REQUIRE __INIT_XDATA_Z

        RSEG XDATA_Z:XDATA:NOROOT(0)
        DATA8
//   33 byte i, Temp[3],  Humidity[3],  volt[6],  light[5],  strTemp[22];
i:
        DS 1
        REQUIRE __INIT_XDATA_Z

        RSEG XDATA_Z:XDATA:NOROOT(0)
        DATA8
Temp:
        DS 3
        REQUIRE __INIT_XDATA_Z

        RSEG XDATA_Z:XDATA:NOROOT(0)
        DATA8
Humidity:
        DS 3
        REQUIRE __INIT_XDATA_Z

        RSEG XDATA_Z:XDATA:NOROOT(0)
        DATA8
volt:
        DS 6
        REQUIRE __INIT_XDATA_Z

        RSEG XDATA_Z:XDATA:NOROOT(0)
        DATA8
light:
        DS 5
        REQUIRE __INIT_XDATA_Z

        RSEG XDATA_Z:XDATA:NOROOT(0)
        DATA8
strTemp:
        DS 22
        REQUIRE __INIT_XDATA_Z

        RSEG XDATA_Z:XDATA:NOROOT(0)
        DATA8
//   34 uint8 count=0;
count:
        DS 1
        REQUIRE __INIT_XDATA_Z
//   35 

        RSEG XDATA_Z:XDATA:NOROOT(0)
        DATA8
//   36 byte addr,cmd;
addr:
        DS 1
        REQUIRE __INIT_XDATA_Z

        RSEG XDATA_Z:XDATA:NOROOT(0)
        DATA8
cmd:
        DS 1
        REQUIRE __INIT_XDATA_Z

        RSEG XDATA_Z:XDATA:NOROOT(0)
        DATA16
//   37 uint16 fre;
fre:
        DS 2
        REQUIRE __INIT_XDATA_Z
//   38 /************************Hardware Related Macros*********|***************************/
//   39 #define         MG_PIN                       (0)     //define which analog input channel you are going to use
//   40 #define         BOOL_PIN                     (2)     //Arduino D2-CO2 sensor digital pinout, labled with "D" on PCB  
//   41 #define         DC_GAIN                      (4.1)   //define the DC gain of amplifier
//   42  
//   43 /***********************Software Related Macros************************************/
//   44 #define         READ_SAMPLE_TIMES            (10)     //define how many samples you are going to take in normal operation
//   45 #define         READ_SAMPLE_INTERVAL         (50)    //define the time interval(in milisecond) between each samples in
//   46 //normal operation
//   47  
//   48 /**********************Application Related Macros**********************************/
//   49 //These values differ from sensor to sensor. User should derermine this value.
//   50 #define         ZERO_POINT_X                 (2.602) //lg400=2.602, the start point_on X_axis of the curve
//   51 #define         ZERO_POINT_VOLTAGE           (0.324) //define the output of the sensor in volts when the concentration of CO2 is 400PPM
//   52 #define         MAX_POINT_VOLTAGE            (0.265) //define the output of the sensor in volts when the concentration of CO2 is 10,000PPM
//   53 #define         REACTION_VOLTGAE             (0.059) //define the ??voltage drop?? of the sensor when move the sensor from air into 1000ppm CO2
//   54  
//   55 /*****************************Globals***********************************************/

        RSEG XDATA_I:XDATA:NOROOT(0)
//   56 float           CO2Curve[3]  =  {ZERO_POINT_X, ZERO_POINT_VOLTAGE, (REACTION_VOLTGAE / (2.602 - 4))};
CO2Curve:
        DATA8
        DS 12
        REQUIRE `?<Initializer for CO2Curve>`
        REQUIRE __INIT_XDATA_I
//   57 // This list should be filled with Application specific Cluster IDs.

        RSEG XDATA_ROM_C:CONST:REORDER:NOROOT(0)
        DATA32
//   58 const cId_t SampleApp_ClusterList[SAMPLEAPP_MAX_CLUSTERS] =
SampleApp_ClusterList:
        DATA16
        DW 1
        DW 2
//   59 {
//   60  SAMPLEAPP_PERIODIC_CLUSTERID1,
//   61  SAMPLEAPP_PERIODIC_CLUSTERID2,
//   62  
//   63 };
//   64 

        RSEG XDATA_ROM_C:CONST:REORDER:NOROOT(0)
        DATA8
//   65 const SimpleDescriptionFormat_t SampleApp_SimpleDesc =
SampleApp_SimpleDesc:
        DB 20
        DATA16
        DW 3848
        DW 1
        DATA8
        DB 0
        DB 2
        DATA16
        DW SampleApp_ClusterList
        DATA8
        DB 2
        DATA16
        DW SampleApp_ClusterList
//   66 {
//   67   SAMPLEAPP_ENDPOINT,              //  int Endpoint;
//   68   SAMPLEAPP_PROFID,                //  uint16 AppProfId[2];
//   69   SAMPLEAPP_DEVICEID,              //  uint16 AppDeviceId[2];
//   70   SAMPLEAPP_DEVICE_VERSION,        //  int   AppDevVer:4;
//   71   SAMPLEAPP_FLAGS,                 //  int   AppFlags:4;
//   72   SAMPLEAPP_MAX_CLUSTERS,          //  uint8  AppNumInClusters;
//   73   (cId_t *)SampleApp_ClusterList,  //  uint8 *pAppInClusterList;
//   74   SAMPLEAPP_MAX_CLUSTERS,          //  uint8  AppNumInClusters;
//   75   (cId_t *)SampleApp_ClusterList   //  uint8 *pAppInClusterList;
//   76 };
//   77 
//   78 // This is the Endpoint/Interface description.  It is defined here, but
//   79 // filled-in in SampleApp_Init().  Another way to go would be to fill
//   80 // in the structure here and make it a "const" (in code space).  The
//   81 // way it's defined in this sample app it is define in RAM.

        RSEG XDATA_Z:XDATA:NOROOT(0)
        DATA8
//   82 endPointDesc_t SampleApp_epDesc;
SampleApp_epDesc:
        DS 6
        REQUIRE __INIT_XDATA_Z
//   83 
//   84 /*********************************************************************
//   85  * EXTERNAL VARIABLES
//   86  */
//   87 
//   88 /*********************************************************************
//   89  * EXTERNAL FUNCTIONS
//   90  */
//   91 
//   92 /*********************************************************************
//   93  * LOCAL VARIABLES
//   94  */

        RSEG XDATA_Z:XDATA:NOROOT(0)
        DATA8
//   95 uint8 SampleApp_TaskID;   // Task ID for internal task/event processing
SampleApp_TaskID:
        DS 1
        REQUIRE __INIT_XDATA_Z
//   96                           // This variable will be received when
//   97                           // SampleApp_Init() is called.

        RSEG XDATA_Z:XDATA:NOROOT(0)
        DATA8
//   98 devStates_t SampleApp_NwkState;
SampleApp_NwkState:
        DS 1
        REQUIRE __INIT_XDATA_Z
//   99 

        RSEG XDATA_Z:XDATA:NOROOT(0)
        DATA8
//  100 uint8 SampleApp_TransID;  // This is the unique message ID (counter)
SampleApp_TransID:
        DS 1
        REQUIRE __INIT_XDATA_Z
//  101 
//  102 

        RSEG XDATA_Z:XDATA:NOROOT(0)
        DATA8
//  103 afAddrType_t SampleApp_P2P_DstAddr;      //点播
SampleApp_P2P_DstAddr:
        DS 12
        REQUIRE __INIT_XDATA_Z

        RSEG XDATA_Z:XDATA:NOROOT(0)
        DATA8
//  104 afAddrType_t SampleApp_Periodic_DstAddr;      //广播
SampleApp_Periodic_DstAddr:
        DS 12
        REQUIRE __INIT_XDATA_Z

        RSEG XDATA_Z:XDATA:NOROOT(0)
        DATA8
//  105 aps_Group_t SampleApp_Group;
SampleApp_Group:
        DS 18
        REQUIRE __INIT_XDATA_Z
//  106 

        RSEG XDATA_Z:XDATA:NOROOT(0)
        DATA8
//  107 uint8 SampleAppPeriodicCounter = 0;
SampleAppPeriodicCounter:
        DS 1
        REQUIRE __INIT_XDATA_Z

        RSEG XDATA_Z:XDATA:NOROOT(0)
        DATA8
//  108 uint8 SampleAppFlashCounter = 0;
SampleAppFlashCounter:
        DS 1
        REQUIRE __INIT_XDATA_Z
//  109 
//  110 /*********************************************************************
//  111  * LOCAL FUNCTIONS
//  112  */
//  113 void SampleApp_HandleKeys( uint8 shift, uint8 keys );
//  114 void SampleApp_MessageMSGCB( afIncomingMSGPacket_t *pckt );
//  115 void SampleApp_Send_P2P_Message(void);
//  116 void callback(uint8 port,uint8 event);
//  117 void ADCinital(void);
//  118 int get_CO2_Message( float *pcurve );
//  119 /*********************************************************************
//  120  * NETWORK LAYER CALLBACKS
//  121  */
//  122 
//  123 /*********************************************************************
//  124  * PUBLIC FUNCTIONS
//  125  */
//  126 
//  127 /*********************************************************************
//  128  * @fn      SampleApp_Init
//  129  *
//  130  * @brief   Initialization function for the Generic App Task.
//  131  *          This is called during initialization and should contain
//  132  *          any application specific initialization (ie. hardware
//  133  *          initialization/setup, table initialization, power up
//  134  *          notificaiton ... ).
//  135  *
//  136  * @param   task_id - the ID assigned by OSAL.  This ID should be
//  137  *                    used to send messages and set timers.
//  138  *
//  139  * @return  none
//  140  */

        RSEG BANKED_CODE:CODE:NOROOT(0)
//  141 void SampleApp_Init( uint8 task_id )
SampleApp_Init:
        CFI Block cfiBlock0 Using cfiCommon0
        CFI Function SampleApp_Init
        CODE
//  142 { 
        FUNCALL SampleApp_Init, MT_UartInit
        LOCFRAME ISTACK, 0, STACK
        LOCFRAME PSTACK, 0, STACK
        LOCFRAME XSTACK, 10, STACK
        LOCFRAME IOVERLAY, 0, STATIC
        LOCFRAME DOVERLAY, 0, STATIC
        ARGFRAME ISTACK, 0, STACK
        ARGFRAME PSTACK, 0, STACK
        ARGFRAME XSTACK, 10, STACK
        ARGFRAME IOVERLAY, 0, STATIC
        ARGFRAME DOVERLAY, 0, STATIC
        FUNCALL SampleApp_Init, MT_UartRegisterTaskID
        LOCFRAME ISTACK, 0, STACK
        LOCFRAME PSTACK, 0, STACK
        LOCFRAME XSTACK, 10, STACK
        LOCFRAME IOVERLAY, 0, STATIC
        LOCFRAME DOVERLAY, 0, STATIC
        ARGFRAME ISTACK, 0, STACK
        ARGFRAME PSTACK, 0, STACK
        ARGFRAME XSTACK, 10, STACK
        ARGFRAME IOVERLAY, 0, STATIC
        ARGFRAME DOVERLAY, 0, STATIC
        FUNCALL SampleApp_Init, osal_rand
        LOCFRAME ISTACK, 0, STACK
        LOCFRAME PSTACK, 0, STACK
        LOCFRAME XSTACK, 10, STACK
        LOCFRAME IOVERLAY, 0, STATIC
        LOCFRAME DOVERLAY, 0, STATIC
        ARGFRAME ISTACK, 0, STACK
        ARGFRAME PSTACK, 0, STACK
        ARGFRAME XSTACK, 10, STACK
        ARGFRAME IOVERLAY, 0, STATIC
        ARGFRAME DOVERLAY, 0, STATIC
        FUNCALL SampleApp_Init, osal_start_timerEx
        LOCFRAME ISTACK, 0, STACK
        LOCFRAME PSTACK, 0, STACK
        LOCFRAME XSTACK, 10, STACK
        LOCFRAME IOVERLAY, 0, STATIC
        LOCFRAME DOVERLAY, 0, STATIC
        ARGFRAME ISTACK, 0, STACK
        ARGFRAME PSTACK, 0, STACK
        ARGFRAME XSTACK, 10, STACK
        ARGFRAME IOVERLAY, 0, STATIC
        ARGFRAME DOVERLAY, 0, STATIC
        FUNCALL SampleApp_Init, afRegister
        LOCFRAME ISTACK, 0, STACK
        LOCFRAME PSTACK, 0, STACK
        LOCFRAME XSTACK, 10, STACK
        LOCFRAME IOVERLAY, 0, STATIC
        LOCFRAME DOVERLAY, 0, STATIC
        ARGFRAME ISTACK, 0, STACK
        ARGFRAME PSTACK, 0, STACK
        ARGFRAME XSTACK, 10, STACK
        ARGFRAME IOVERLAY, 0, STATIC
        ARGFRAME DOVERLAY, 0, STATIC
        FUNCALL SampleApp_Init, RegisterForKeys
        LOCFRAME ISTACK, 0, STACK
        LOCFRAME PSTACK, 0, STACK
        LOCFRAME XSTACK, 10, STACK
        LOCFRAME IOVERLAY, 0, STATIC
        LOCFRAME DOVERLAY, 0, STATIC
        ARGFRAME ISTACK, 0, STACK
        ARGFRAME PSTACK, 0, STACK
        ARGFRAME XSTACK, 10, STACK
        ARGFRAME IOVERLAY, 0, STATIC
        ARGFRAME DOVERLAY, 0, STATIC
        FUNCALL SampleApp_Init, ADCinital
        LOCFRAME ISTACK, 0, STACK
        LOCFRAME PSTACK, 0, STACK
        LOCFRAME XSTACK, 10, STACK
        LOCFRAME IOVERLAY, 0, STATIC
        LOCFRAME DOVERLAY, 0, STATIC
        ARGFRAME ISTACK, 0, STACK
        ARGFRAME PSTACK, 0, STACK
        ARGFRAME XSTACK, 10, STACK
        ARGFRAME IOVERLAY, 0, STATIC
        ARGFRAME DOVERLAY, 0, STATIC
        FUNCALL SampleApp_Init, B_LUX_Init
        LOCFRAME ISTACK, 0, STACK
        LOCFRAME PSTACK, 0, STACK
        LOCFRAME XSTACK, 10, STACK
        LOCFRAME IOVERLAY, 0, STATIC
        LOCFRAME DOVERLAY, 0, STATIC
        ARGFRAME ISTACK, 0, STACK
        ARGFRAME PSTACK, 0, STACK
        ARGFRAME XSTACK, 10, STACK
        ARGFRAME IOVERLAY, 0, STATIC
        ARGFRAME DOVERLAY, 0, STATIC
        FUNCALL SampleApp_Init, HalLcdWriteString
        LOCFRAME ISTACK, 0, STACK
        LOCFRAME PSTACK, 0, STACK
        LOCFRAME XSTACK, 10, STACK
        LOCFRAME IOVERLAY, 0, STATIC
        LOCFRAME DOVERLAY, 0, STATIC
        ARGFRAME ISTACK, 0, STACK
        ARGFRAME PSTACK, 0, STACK
        ARGFRAME XSTACK, 10, STACK
        ARGFRAME IOVERLAY, 0, STATIC
        ARGFRAME DOVERLAY, 0, STATIC
        MOV     A,#-0xa
        LCALL   ?BANKED_ENTER_XDATA
        CFI DPH0 load(1, XDATA, add(CFA_XSP16, literal(-1)))
        CFI DPL0 load(1, XDATA, add(CFA_XSP16, literal(-2)))
        CFI ?BRET_EXT load(1, XDATA, add(CFA_XSP16, literal(-3)))
        CFI ?RET_HIGH load(1, XDATA, add(CFA_XSP16, literal(-4)))
        CFI ?RET_LOW load(1, XDATA, add(CFA_XSP16, literal(-5)))
        CFI R7 load(1, XDATA, add(CFA_XSP16, literal(-6)))
        CFI V1 load(1, XDATA, add(CFA_XSP16, literal(-7)))
        CFI V0 load(1, XDATA, add(CFA_XSP16, literal(-8)))
        CFI VB load(1, XDATA, add(CFA_XSP16, literal(-9)))
        CFI R6 load(1, XDATA, add(CFA_XSP16, literal(-10)))
        CFI CFA_SP SP+0
        CFI CFA_XSP16 add(XSP16, 10)
        ; Saved register size: 10
        ; Auto size: 0
        MOV     A,R1
        MOV     R6,A
//  143   SampleApp_TaskID = task_id;
        MOV     DPTR,#SampleApp_TaskID
        MOVX    @DPTR,A
//  144   SampleApp_NwkState = DEV_INIT;
        MOV     DPTR,#SampleApp_NwkState
        MOV     A,#0x1
        MOVX    @DPTR,A
//  145   SampleApp_TransID = 0;
        MOV     DPTR,#SampleApp_TransID
        CLR     A
        MOVX    @DPTR,A
//  146   
//  147   MT_UartInit();                  //串口初始化
        ; Setup parameters for call to function MT_UartInit
        LCALL   ??MT_UartInit?relay
//  148   MT_UartRegisterTaskID(task_id); //注册串口任务
        ; Setup parameters for call to function MT_UartRegisterTaskID
        MOV     A,R6
        MOV     R1,A
        LCALL   ??MT_UartRegisterTaskID?relay
//  149                                   //315电子
//  150   P0SEL &= 0x7f;                  //P0_7配置成通用输入io，用作温湿度数据引脚
        ANL     0xf3,#0x7f
//  151   P0DIR &= ~0x80; 
        ANL     0xfd,#0x7f
//  152   //315电子 开启两秒定周期时任务
//  153   osal_start_timerEx( SampleApp_TaskID, SAMPLEAPP_SEND_PERIODIC_MSG_EVT,
//  154         (SAMPLEAPP_SEND_PERIODIC_MSG_TIMEOUT + (osal_rand() & 0x00FF)) );
        ; Setup parameters for call to function osal_rand
        LCALL   ?Subroutine0 & 0xFFFF
//  155   
//  156  #if defined ( BUILD_ALL_DEVICES )
//  157   // The "Demo" target is setup to have BUILD_ALL_DEVICES and HOLD_AUTO_START
//  158   // We are looking at a jumper (defined in SampleAppHw.c) to be jumpered
//  159   // together - if they are - we will start up a coordinator. Otherwise,
//  160   // the device will start as a router.
//  161   if ( readCoordinatorJumper() )
//  162     zgDeviceLogicalType = ZG_DEVICETYPE_COORDINATOR;
//  163   else
//  164     zgDeviceLogicalType = ZG_DEVICETYPE_ROUTER;
//  165 #endif // BUILD_ALL_DEVICES
//  166 
//  167 #if defined ( HOLD_AUTO_START )
//  168   // HOLD_AUTO_START is a compile option that will surpress ZDApp
//  169   //  from starting the device and wait for the application to
//  170   //  start the device.
//  171   ZDOInitDevice(0);
//  172 #endif
//  173   
//  174   SampleApp_P2P_DstAddr.addrMode = (afAddrMode_t)Addr16Bit; //点播 
??CrossCallReturnLabel_0:
        MOV     DPTR,#SampleApp_P2P_DstAddr + 8
        MOV     A,#0x2
        MOVX    @DPTR,A
//  175   SampleApp_P2P_DstAddr.endPoint = SAMPLEAPP_ENDPOINT; 
        INC     DPTR
        MOV     A,#0x14
        MOVX    @DPTR,A
//  176   SampleApp_P2P_DstAddr.addr.shortAddr = 0x0000;            //两终端以此地址将测量值发送到协调器
        MOV     DPTR,#SampleApp_P2P_DstAddr
        CLR     A
        MOVX    @DPTR,A
        INC     DPTR
        MOVX    @DPTR,A
//  177   
//  178 
//  179   //装载描述符信息，默认。
//  180   SampleApp_epDesc.endPoint = SAMPLEAPP_ENDPOINT;
        MOV     DPTR,#SampleApp_epDesc
        MOV     A,#0x14
        MOVX    @DPTR,A
//  181   SampleApp_epDesc.task_id = &SampleApp_TaskID;
        INC     DPTR
        MOV     A,#SampleApp_TaskID & 0xff
        MOVX    @DPTR,A
        INC     DPTR
        MOV     A,#(SampleApp_TaskID >> 8) & 0xff
        MOVX    @DPTR,A
//  182   SampleApp_epDesc.simpleDesc
//  183             = (SimpleDescriptionFormat_t *)&SampleApp_SimpleDesc;
        INC     DPTR
        MOV     A,#SampleApp_SimpleDesc & 0xff
        MOVX    @DPTR,A
        INC     DPTR
        MOV     A,#(SampleApp_SimpleDesc >> 8) & 0xff
        MOVX    @DPTR,A
//  184   SampleApp_epDesc.latencyReq = noLatencyReqs;
        INC     DPTR
        CLR     A
        MOVX    @DPTR,A
//  185 
//  186   // 注册端点描述符
//  187   afRegister( &SampleApp_epDesc );
        ; Setup parameters for call to function afRegister
        MOV     R2,#SampleApp_epDesc & 0xff
        MOV     R3,#(SampleApp_epDesc >> 8) & 0xff
        LCALL   ??afRegister?relay
//  188 
//  189   // Register for all key events - This app will handle all key events
//  190   RegisterForKeys( SampleApp_TaskID );
        ; Setup parameters for call to function RegisterForKeys
        MOV     DPTR,#SampleApp_TaskID
        MOVX    A,@DPTR
        MOV     R1,A
        LCALL   ??RegisterForKeys?relay
//  191   ADCinital();
        ; Setup parameters for call to function ADCinital
        LCALL   ??ADCinital?relay
//  192   B_LUX_Init();
        ; Setup parameters for call to function B_LUX_Init
        LCALL   ??B_LUX_Init?relay
//  193  
//  194 #if defined ( LCD_SUPPORTED )
//  195   HalLcdWriteString( "SampleApp", HAL_LCD_LINE_1 );
        ; Setup parameters for call to function HalLcdWriteString
        MOV     R1,#0x1
        MOV     R2,#`?<Constant "SampleApp">` & 0xff
        MOV     R3,#(`?<Constant "SampleApp">` >> 8) & 0xff
        LCALL   ??HalLcdWriteString?relay
//  196 #endif
//  197 }
        MOV     R7,#0x2
        LJMP    ?BANKED_LEAVE_XDATA
        CFI EndBlock cfiBlock0
        REQUIRE P0SEL
        REQUIRE P0DIR
//  198 
//  199 /*********************************************************************
//  200  * @fn      应用层任务轮询函数，所有任务都在这里顺序执行
//  201  *
//  202  * @brief   Generic Application Task event processor.  This function
//  203  *          is called to process all events for the task.  Events
//  204  *          include timers, messages and any other user defined events.
//  205  *
//  206  * @param   task_id  - The OSAL assigned task ID.
//  207  * @param   events - events to process.  This is a bit map and can
//  208  *                   contain more than one event.
//  209  *
//  210  * @return  none
//  211  */

        RSEG BANKED_CODE:CODE:NOROOT(0)
//  212 uint16 SampleApp_ProcessEvent( uint8 task_id, uint16 events )
SampleApp_ProcessEvent:
        CFI Block cfiBlock1 Using cfiCommon0
        CFI Function SampleApp_ProcessEvent
        CODE
//  213 {
        FUNCALL SampleApp_ProcessEvent, osal_msg_receive
        LOCFRAME ISTACK, 0, STACK
        LOCFRAME PSTACK, 0, STACK
        LOCFRAME XSTACK, 12, STACK
        LOCFRAME IOVERLAY, 0, STATIC
        LOCFRAME DOVERLAY, 0, STATIC
        ARGFRAME ISTACK, 0, STACK
        ARGFRAME PSTACK, 0, STACK
        ARGFRAME XSTACK, 12, STACK
        ARGFRAME IOVERLAY, 0, STATIC
        ARGFRAME DOVERLAY, 0, STATIC
        FUNCALL SampleApp_ProcessEvent, osal_rand
        LOCFRAME ISTACK, 0, STACK
        LOCFRAME PSTACK, 0, STACK
        LOCFRAME XSTACK, 12, STACK
        LOCFRAME IOVERLAY, 0, STATIC
        LOCFRAME DOVERLAY, 0, STATIC
        ARGFRAME ISTACK, 0, STACK
        ARGFRAME PSTACK, 0, STACK
        ARGFRAME XSTACK, 12, STACK
        ARGFRAME IOVERLAY, 0, STATIC
        ARGFRAME DOVERLAY, 0, STATIC
        FUNCALL SampleApp_ProcessEvent, osal_start_timerEx
        LOCFRAME ISTACK, 0, STACK
        LOCFRAME PSTACK, 0, STACK
        LOCFRAME XSTACK, 12, STACK
        LOCFRAME IOVERLAY, 0, STATIC
        LOCFRAME DOVERLAY, 0, STATIC
        ARGFRAME ISTACK, 0, STACK
        ARGFRAME PSTACK, 0, STACK
        ARGFRAME XSTACK, 12, STACK
        ARGFRAME IOVERLAY, 0, STATIC
        ARGFRAME DOVERLAY, 0, STATIC
        FUNCALL SampleApp_ProcessEvent, osal_msg_deallocate
        LOCFRAME ISTACK, 0, STACK
        LOCFRAME PSTACK, 0, STACK
        LOCFRAME XSTACK, 12, STACK
        LOCFRAME IOVERLAY, 0, STATIC
        LOCFRAME DOVERLAY, 0, STATIC
        ARGFRAME ISTACK, 0, STACK
        ARGFRAME PSTACK, 0, STACK
        ARGFRAME XSTACK, 12, STACK
        ARGFRAME IOVERLAY, 0, STATIC
        ARGFRAME DOVERLAY, 0, STATIC
        FUNCALL SampleApp_ProcessEvent, osal_msg_receive
        LOCFRAME ISTACK, 0, STACK
        LOCFRAME PSTACK, 0, STACK
        LOCFRAME XSTACK, 12, STACK
        LOCFRAME IOVERLAY, 0, STATIC
        LOCFRAME DOVERLAY, 0, STATIC
        ARGFRAME ISTACK, 0, STACK
        ARGFRAME PSTACK, 0, STACK
        ARGFRAME XSTACK, 12, STACK
        ARGFRAME IOVERLAY, 0, STATIC
        ARGFRAME DOVERLAY, 0, STATIC
        FUNCALL SampleApp_ProcessEvent, SampleApp_MessageMSGCB
        LOCFRAME ISTACK, 0, STACK
        LOCFRAME PSTACK, 0, STACK
        LOCFRAME XSTACK, 12, STACK
        LOCFRAME IOVERLAY, 0, STATIC
        LOCFRAME DOVERLAY, 0, STATIC
        ARGFRAME ISTACK, 0, STACK
        ARGFRAME PSTACK, 0, STACK
        ARGFRAME XSTACK, 12, STACK
        ARGFRAME IOVERLAY, 0, STATIC
        ARGFRAME DOVERLAY, 0, STATIC
        FUNCALL SampleApp_ProcessEvent, SampleApp_Send_P2P_Message
        LOCFRAME ISTACK, 0, STACK
        LOCFRAME PSTACK, 0, STACK
        LOCFRAME XSTACK, 12, STACK
        LOCFRAME IOVERLAY, 0, STATIC
        LOCFRAME DOVERLAY, 0, STATIC
        ARGFRAME ISTACK, 0, STACK
        ARGFRAME PSTACK, 0, STACK
        ARGFRAME XSTACK, 12, STACK
        ARGFRAME IOVERLAY, 0, STATIC
        ARGFRAME DOVERLAY, 0, STATIC
        FUNCALL SampleApp_ProcessEvent, osal_rand
        LOCFRAME ISTACK, 0, STACK
        LOCFRAME PSTACK, 0, STACK
        LOCFRAME XSTACK, 12, STACK
        LOCFRAME IOVERLAY, 0, STATIC
        LOCFRAME DOVERLAY, 0, STATIC
        ARGFRAME ISTACK, 0, STACK
        ARGFRAME PSTACK, 0, STACK
        ARGFRAME XSTACK, 12, STACK
        ARGFRAME IOVERLAY, 0, STATIC
        ARGFRAME DOVERLAY, 0, STATIC
        FUNCALL SampleApp_ProcessEvent, osal_start_timerEx
        LOCFRAME ISTACK, 0, STACK
        LOCFRAME PSTACK, 0, STACK
        LOCFRAME XSTACK, 12, STACK
        LOCFRAME IOVERLAY, 0, STATIC
        LOCFRAME DOVERLAY, 0, STATIC
        ARGFRAME ISTACK, 0, STACK
        ARGFRAME PSTACK, 0, STACK
        ARGFRAME XSTACK, 12, STACK
        ARGFRAME IOVERLAY, 0, STATIC
        ARGFRAME DOVERLAY, 0, STATIC
        MOV     A,#-0xc
        LCALL   ?BANKED_ENTER_XDATA
        CFI DPH0 load(1, XDATA, add(CFA_XSP16, literal(-1)))
        CFI DPL0 load(1, XDATA, add(CFA_XSP16, literal(-2)))
        CFI ?BRET_EXT load(1, XDATA, add(CFA_XSP16, literal(-3)))
        CFI ?RET_HIGH load(1, XDATA, add(CFA_XSP16, literal(-4)))
        CFI ?RET_LOW load(1, XDATA, add(CFA_XSP16, literal(-5)))
        CFI R7 load(1, XDATA, add(CFA_XSP16, literal(-6)))
        CFI V3 load(1, XDATA, add(CFA_XSP16, literal(-7)))
        CFI V2 load(1, XDATA, add(CFA_XSP16, literal(-8)))
        CFI V1 load(1, XDATA, add(CFA_XSP16, literal(-9)))
        CFI V0 load(1, XDATA, add(CFA_XSP16, literal(-10)))
        CFI VB load(1, XDATA, add(CFA_XSP16, literal(-11)))
        CFI R6 load(1, XDATA, add(CFA_XSP16, literal(-12)))
        CFI CFA_SP SP+0
        CFI CFA_XSP16 add(XSP16, 12)
        ; Saved register size: 12
        ; Auto size: 0
        MOV     A,R2
        MOV     R6,A
        MOV     A,R3
        MOV     R7,A
//  214   afIncomingMSGPacket_t *MSGpkt;
//  215   (void)task_id;  // Intentionally unreferenced parameter
//  216 
//  217   if ( events & SYS_EVENT_MSG )
        ANL     A,#0x80
        JZ      ??SampleApp_ProcessEvent_0
//  218   {
//  219     MSGpkt = (afIncomingMSGPacket_t *)osal_msg_receive( SampleApp_TaskID );
        ; Setup parameters for call to function osal_msg_receive
        SJMP    ??SampleApp_ProcessEvent_1
//  220     while ( MSGpkt )
//  221     {
//  222       switch ( MSGpkt->hdr.event )
//  223       {
//  224         // 按键任务，未使用
//  225         case KEY_CHANGE:
//  226           SampleApp_HandleKeys( ((keyChange_t *)MSGpkt)->state, ((keyChange_t *)MSGpkt)->keys );
//  227           break;
//  228 
//  229         //接收到无线消息，调用消息解析函数
//  230         case AF_INCOMING_MSG_CMD: 
//  231           SampleApp_MessageMSGCB( MSGpkt );
//  232           break;
//  233 
//  234         // 硬件初始化
//  235         case ZDO_STATE_CHANGE:
//  236           SampleApp_NwkState = (devStates_t)(MSGpkt->hdr.status);
??SampleApp_ProcessEvent_2:
        INC     DPTR
        MOVX    A,@DPTR
        MOV     DPTR,#SampleApp_NwkState
        MOVX    @DPTR,A
//  237           if ( //(SampleApp_NwkState == DEV_ZB_COORD) ||
//  238               
//  239                //只有温度终端启动1.1s定时循环发送温湿度
//  240                (SampleApp_NwkState == DEV_END_DEVICE) )
        XRL     A,#0x6
        JNZ     ??CrossCallReturnLabel_1
//  241           {
//  242             //定时启动任务
//  243             osal_start_timerEx( SampleApp_TaskID,
//  244                               SAMPLEAPP_SEND_PERIODIC_MSG_EVT,
//  245                               (SAMPLEAPP_SEND_PERIODIC_MSG_TIMEOUT+(osal_rand() & 0x00FF)) );
        ; Setup parameters for call to function osal_rand
        LCALL   ?Subroutine0 & 0xFFFF
//  246           }
//  247           else
//  248           {
//  249             // Device is no longer in the network
//  250           }
//  251           break;
//  252 
//  253         default:
//  254           break;
//  255       }
//  256 
//  257       // Release the memory
//  258       osal_msg_deallocate( (uint8 *)MSGpkt );
??CrossCallReturnLabel_1:
        ; Setup parameters for call to function osal_msg_deallocate
        MOV     R2,?V0 + 0
        MOV     R3,?V0 + 1
        LCALL   ??osal_msg_deallocate?relay
//  259 
//  260       // Next - if one is available
//  261       MSGpkt = (afIncomingMSGPacket_t *)osal_msg_receive( SampleApp_TaskID );
        ; Setup parameters for call to function osal_msg_receive
??SampleApp_ProcessEvent_1:
        MOV     DPTR,#SampleApp_TaskID
        MOVX    A,@DPTR
        MOV     R1,A
        LCALL   ??osal_msg_receive?relay
        MOV     ?V0 + 0,R2
        MOV     ?V0 + 1,R3
        MOV     A,?V0 + 0
        ORL     A,?V0 + 1
        JZ      ??SampleApp_ProcessEvent_3
        MOV     DPL,?V0 + 0
        MOV     DPH,?V0 + 1
        MOVX    A,@DPTR
        ADD     A,#-0x1a
        JZ      ??SampleApp_ProcessEvent_4
        ADD     A,#0x49
        JZ      ??SampleApp_ProcessEvent_2
        SJMP    ??CrossCallReturnLabel_1
??SampleApp_ProcessEvent_4:
        ; Setup parameters for call to function SampleApp_MessageMSGCB
        MOV     R2,?V0 + 0
        MOV     R3,?V0 + 1
        LCALL   ??SampleApp_MessageMSGCB?relay
        SJMP    ??CrossCallReturnLabel_1
//  262     }
//  263 
//  264     // return unprocessed events
//  265     return (events ^ SYS_EVENT_MSG);
??SampleApp_ProcessEvent_3:
        MOV     A,R6
        MOV     R2,A
        MOV     A,R7
        XRL     A,#0x80
??SampleApp_ProcessEvent_5:
        MOV     R3,A
        SJMP    ??SampleApp_ProcessEvent_6
//  266   }
//  267 
//  268   // Send a message out - This event is generated by a timer
//  269   //  (setup in SampleApp_Init()).
//  270   if ( events & SAMPLEAPP_SEND_PERIODIC_MSG_EVT )
??SampleApp_ProcessEvent_0:
        MOV     A,R6
        MOV     C,0xE0 /* A   */.0
        JNC     ??SampleApp_ProcessEvent_7
//  271   {
//  272    
//  273     SampleApp_Send_P2P_Message();
        ; Setup parameters for call to function SampleApp_Send_P2P_Message
        LCALL   ??SampleApp_Send_P2P_Message?relay
//  274 
//  275     // Setup to send message again in normal period (+ a little jitter)
//  276     osal_start_timerEx( SampleApp_TaskID, SAMPLEAPP_SEND_PERIODIC_MSG_EVT,
//  277         (SAMPLEAPP_SEND_PERIODIC_MSG_TIMEOUT + (osal_rand() & 0x00FF)) );
        ; Setup parameters for call to function osal_rand
        LCALL   ?Subroutine0 & 0xFFFF
//  278 
//  279     // return unprocessed events
//  280     return (events ^ SAMPLEAPP_SEND_PERIODIC_MSG_EVT);
??CrossCallReturnLabel_2:
        MOV     A,R6
        XRL     A,#0x1
        MOV     R2,A
        MOV     A,R7
        SJMP    ??SampleApp_ProcessEvent_5
//  281   }
//  282 
//  283   // Discard unknown events
//  284   return 0;
??SampleApp_ProcessEvent_7:
        MOV     R2,#0x0
        MOV     R3,#0x0
??SampleApp_ProcessEvent_6:
        MOV     R7,#0x4
        LJMP    ?BANKED_LEAVE_XDATA
        CFI EndBlock cfiBlock1
//  285 }

        RSEG BANKED_CODE:CODE:NOROOT(0)
?Subroutine0:
        CFI Block cfiCond2 Using cfiCommon0
        CFI NoFunction
        CFI Conditional ??CrossCallReturnLabel_0
        CFI R6 load(1, XDATA, add(CFA_XSP16, literal(-10)))
        CFI VB load(1, XDATA, add(CFA_XSP16, literal(-9)))
        CFI V0 load(1, XDATA, add(CFA_XSP16, literal(-8)))
        CFI V1 load(1, XDATA, add(CFA_XSP16, literal(-7)))
        CFI R7 load(1, XDATA, add(CFA_XSP16, literal(-6)))
        CFI ?RET_LOW load(1, XDATA, add(CFA_XSP16, literal(-5)))
        CFI ?RET_HIGH load(1, XDATA, add(CFA_XSP16, literal(-4)))
        CFI ?BRET_EXT load(1, XDATA, add(CFA_XSP16, literal(-3)))
        CFI DPL0 load(1, XDATA, add(CFA_XSP16, literal(-2)))
        CFI DPH0 load(1, XDATA, add(CFA_XSP16, literal(-1)))
        CFI CFA_SP SP+0
        CFI CFA_XSP16 add(XSP16, 10)
        CFI Block cfiCond3 Using cfiCommon0
        CFI (cfiCond3) NoFunction
        CFI (cfiCond3) Conditional ??CrossCallReturnLabel_1
        CFI (cfiCond3) R6 load(1, XDATA, add(CFA_XSP16, literal(-12)))
        CFI (cfiCond3) VB load(1, XDATA, add(CFA_XSP16, literal(-11)))
        CFI (cfiCond3) V0 load(1, XDATA, add(CFA_XSP16, literal(-10)))
        CFI (cfiCond3) V1 load(1, XDATA, add(CFA_XSP16, literal(-9)))
        CFI (cfiCond3) V2 load(1, XDATA, add(CFA_XSP16, literal(-8)))
        CFI (cfiCond3) V3 load(1, XDATA, add(CFA_XSP16, literal(-7)))
        CFI (cfiCond3) R7 load(1, XDATA, add(CFA_XSP16, literal(-6)))
        CFI (cfiCond3) ?RET_LOW load(1, XDATA, add(CFA_XSP16, literal(-5)))
        CFI (cfiCond3) ?RET_HIGH load(1, XDATA, add(CFA_XSP16, literal(-4)))
        CFI (cfiCond3) ?BRET_EXT load(1, XDATA, add(CFA_XSP16, literal(-3)))
        CFI (cfiCond3) DPL0 load(1, XDATA, add(CFA_XSP16, literal(-2)))
        CFI (cfiCond3) DPH0 load(1, XDATA, add(CFA_XSP16, literal(-1)))
        CFI (cfiCond3) CFA_SP SP+0
        CFI (cfiCond3) CFA_XSP16 add(XSP16, 12)
        CFI Block cfiCond4 Using cfiCommon0
        CFI (cfiCond4) NoFunction
        CFI (cfiCond4) Conditional ??CrossCallReturnLabel_2
        CFI (cfiCond4) R6 load(1, XDATA, add(CFA_XSP16, literal(-12)))
        CFI (cfiCond4) VB load(1, XDATA, add(CFA_XSP16, literal(-11)))
        CFI (cfiCond4) V0 load(1, XDATA, add(CFA_XSP16, literal(-10)))
        CFI (cfiCond4) V1 load(1, XDATA, add(CFA_XSP16, literal(-9)))
        CFI (cfiCond4) V2 load(1, XDATA, add(CFA_XSP16, literal(-8)))
        CFI (cfiCond4) V3 load(1, XDATA, add(CFA_XSP16, literal(-7)))
        CFI (cfiCond4) R7 load(1, XDATA, add(CFA_XSP16, literal(-6)))
        CFI (cfiCond4) ?RET_LOW load(1, XDATA, add(CFA_XSP16, literal(-5)))
        CFI (cfiCond4) ?RET_HIGH load(1, XDATA, add(CFA_XSP16, literal(-4)))
        CFI (cfiCond4) ?BRET_EXT load(1, XDATA, add(CFA_XSP16, literal(-3)))
        CFI (cfiCond4) DPL0 load(1, XDATA, add(CFA_XSP16, literal(-2)))
        CFI (cfiCond4) DPH0 load(1, XDATA, add(CFA_XSP16, literal(-1)))
        CFI (cfiCond4) CFA_SP SP+0
        CFI (cfiCond4) CFA_XSP16 add(XSP16, 12)
        CFI Block cfiPicker5 Using cfiCommon1
        CFI (cfiPicker5) NoFunction
        CFI (cfiPicker5) Picker
        LCALL   ??osal_rand?relay
        ; Setup parameters for call to function osal_start_timerEx
        ; Setup parameters for call to function osal_start_timerEx
        ; Setup parameters for call to function osal_start_timerEx
        MOV     A,R2
        ADD     A,#-0x30
        MOV     R4,A
        CLR     A
        ADDC    A,#0x7
        MOV     R5,A
        MOV     R2,#0x1
        MOV     R3,#0x0
        MOV     DPTR,#SampleApp_TaskID
        MOVX    A,@DPTR
        MOV     R1,A
        LCALL   ??osal_start_timerEx?relay
        RET
        CFI EndBlock cfiCond2
        CFI EndBlock cfiCond3
        CFI EndBlock cfiCond4
        CFI EndBlock cfiPicker5
//  286 
//  287 /*********************************************************************
//  288  * Event Generation Functions
//  289  */
//  290 /*********************************************************************
//  291  * @fn      SampleApp_HandleKeys
//  292  *
//  293  * @brief   Handles all key events for this device.
//  294  *
//  295  * @param   shift - true if in shift/alt.
//  296  * @param   keys - bit field for key events. Valid entries:
//  297  *                 HAL_KEY_SW_2
//  298  *                 HAL_KEY_SW_1
//  299  *
//  300  * @return  none
//  301  */

        RSEG BANKED_CODE:CODE:NOROOT(0)
//  302 void SampleApp_HandleKeys( uint8 shift, uint8 keys )
SampleApp_HandleKeys:
        CFI Block cfiBlock6 Using cfiCommon0
        CFI Function SampleApp_HandleKeys
        CODE
//  303 {
        ; Saved register size: 0
        ; Auto size: 0
//  304  //未使用，不得删除 
//  305 }
        LJMP    ?BRET
        CFI EndBlock cfiBlock6
//  306 
//  307 /*********************************************************************
//  308  * LOCAL FUNCTIONS
//  309  */
//  310 
//  311 /*********************************************************************
//  312  * @fn      SampleApp_MessageMSGCB
//  313  *
//  314  * @brief   Data message processor callback.  This function processes
//  315  *          any incoming data - probably from other devices.  So, based
//  316  *          on cluster ID, perform the intended action.
//  317  *
//  318  * @param   none
//  319  *
//  320  * @return  none
//  321  */

        RSEG BANKED_CODE:CODE:NOROOT(0)
//  322 void SampleApp_MessageMSGCB( afIncomingMSGPacket_t *pkt )
SampleApp_MessageMSGCB:
        CFI Block cfiBlock7 Using cfiCommon0
        CFI Function SampleApp_MessageMSGCB
        CODE
//  323 { 
        PUSH    DPL
        CFI DPL0 Frame(CFA_SP, 4)
        CFI CFA_SP SP+-4
        PUSH    DPH
        CFI DPH0 Frame(CFA_SP, 5)
        CFI CFA_SP SP+-5
        ; Saved register size: 2
        ; Auto size: 0
//  324   
//  325   
//  326   
//  327   // A message with a serial data block to be transmitted on the serial port.
//  328   
//  329     addr = pkt->cmd.Data[0];//获取地址是否为1号
        MOV     A,R2
        ADD     A,#0x21
        MOV     R0,A
        MOV     A,R3
        ADDC    A,#0x0
        MOV     R1,A
        LCALL   ?Subroutine5 & 0xFFFF
??CrossCallReturnLabel_12:
        MOVX    A,@DPTR
        MOV     DPTR,#addr
        MOVX    @DPTR,A
//  330     if(addr==1)
        XRL     A,#0x1
        JNZ     ??SampleApp_MessageMSGCB_0
//  331     {
//  332       cmd=pkt->cmd.Data[1];//获取开关灯指令
        LCALL   ?Subroutine5 & 0xFFFF
??CrossCallReturnLabel_13:
        INC     DPTR
        MOVX    A,@DPTR
        MOV     DPTR,#cmd
        MOVX    @DPTR,A
//  333       if(cmd =='A') //315电子 改动此处为21即使第二个终端的代码
        XRL     A,#0x41
        JNZ     ??SampleApp_MessageMSGCB_1
//  334       {
//  335         P1_0=1; //继电器断开 ,P0_4接继电器控制引脚
        SETB    0x90.0
//  336         fre=(pkt->cmd.Data[2])*1000;
        MOV     DPL,R0
        MOV     DPH,R1
        MOVX    A,@DPTR
        MOV     R0,A
        INC     DPTR
        MOVX    A,@DPTR
        MOV     DPH,A
        MOV     DPL,R0
        INC     DPTR
        INC     DPTR
        MOVX    A,@DPTR
        MOV     R0,A
        MOV     B,#-0x18
        MUL     AB
        XCH     A,R0
        MOV     R2,B
        MOV     B,#0x3
        MUL     AB
        ADD     A,R2
        MOV     R1,A
        MOV     DPTR,#fre
        MOV     A,R0
        MOVX    @DPTR,A
        INC     DPTR
        MOV     A,R1
        MOVX    @DPTR,A
        SJMP    ??SampleApp_MessageMSGCB_0
//  337        // HalLedSet( HAL_LED_3, HAL_LED_MODE_OFF);//对应的板子D1灯开
//  338        // HalLedBlink (HAL_LED_3, 0, 50,fre);//闪烁
//  339       }
//  340       if(cmd =='B')//315电子 改动此处为20即使第二个终端的代码
??SampleApp_MessageMSGCB_1:
        MOVX    A,@DPTR
        XRL     A,#0x42
        JNZ     ??SampleApp_MessageMSGCB_0
//  341       {
//  342         P1_1=0; //继电器吸合，P0_4接继电器控制引脚
        CLR     0x90.1
//  343         //HalLedSet( HAL_LED_3, HAL_LED_MODE_ON);//对应的板子D1灯点关
//  344       }
//  345     }
//  346 }
??SampleApp_MessageMSGCB_0:
        POP     DPH
        CFI DPH0 SameValue
        CFI CFA_SP SP+-4
        POP     DPL
        CFI DPL0 SameValue
        CFI CFA_SP SP+-3
        LJMP    ?BRET
        CFI EndBlock cfiBlock7
        REQUIRE _A_P1

        RSEG BANKED_CODE:CODE:NOROOT(0)
?Subroutine5:
        CFI Block cfiCond8 Using cfiCommon0
        CFI NoFunction
        CFI Conditional ??CrossCallReturnLabel_12
        CFI DPL0 Frame(CFA_SP, 4)
        CFI DPH0 Frame(CFA_SP, 5)
        CFI CFA_SP SP+-5
        CFI Block cfiCond9 Using cfiCommon0
        CFI (cfiCond9) NoFunction
        CFI (cfiCond9) Conditional ??CrossCallReturnLabel_13
        CFI (cfiCond9) DPL0 Frame(CFA_SP, 4)
        CFI (cfiCond9) DPH0 Frame(CFA_SP, 5)
        CFI (cfiCond9) CFA_SP SP+-5
        CFI Block cfiPicker10 Using cfiCommon1
        CFI (cfiPicker10) NoFunction
        CFI (cfiPicker10) Picker
        MOV     DPL,R0
        MOV     DPH,R1
        MOVX    A,@DPTR
        MOV     R2,A
        INC     DPTR
        MOVX    A,@DPTR
        MOV     DPH,A
        MOV     DPL,R2
        RET
        CFI EndBlock cfiCond8
        CFI EndBlock cfiCond9
        CFI EndBlock cfiPicker10
//  347 /*********************************************************************
//  348  * @fn      SampleApp_Send_P2P_Message
//  349  *
//  350  * @brief   point to point.
//  351  *
//  352  * @param   none
//  353  *
//  354  * @return  none
//  355  */
//  356 //每次定时时间到调用该函数  315电子

        RSEG BANKED_CODE:CODE:NOROOT(0)
//  357 void SampleApp_Send_P2P_Message( void )//此函数只有温度终端会调用，将温湿度原始数据拆分为十位与个位
SampleApp_Send_P2P_Message:
        CFI Block cfiBlock11 Using cfiCommon0
        CFI Function SampleApp_Send_P2P_Message
        CODE
//  358                                        //II字符
//  359 {
        FUNCALL SampleApp_Send_P2P_Message, DHT11
        LOCFRAME ISTACK, 0, STACK
        LOCFRAME PSTACK, 0, STACK
        LOCFRAME XSTACK, 26, STACK
        LOCFRAME IOVERLAY, 0, STATIC
        LOCFRAME DOVERLAY, 0, STATIC
        ARGFRAME ISTACK, 0, STACK
        ARGFRAME PSTACK, 0, STACK
        ARGFRAME XSTACK, 26, STACK
        ARGFRAME IOVERLAY, 0, STATIC
        ARGFRAME DOVERLAY, 0, STATIC
        FUNCALL SampleApp_Send_P2P_Message, get_CO2_Message
        LOCFRAME ISTACK, 0, STACK
        LOCFRAME PSTACK, 0, STACK
        LOCFRAME XSTACK, 26, STACK
        LOCFRAME IOVERLAY, 0, STATIC
        LOCFRAME DOVERLAY, 0, STATIC
        ARGFRAME ISTACK, 0, STACK
        ARGFRAME PSTACK, 0, STACK
        ARGFRAME XSTACK, 26, STACK
        ARGFRAME IOVERLAY, 0, STATIC
        ARGFRAME DOVERLAY, 0, STATIC
        FUNCALL SampleApp_Send_P2P_Message, osal_memcpy
        LOCFRAME ISTACK, 0, STACK
        LOCFRAME PSTACK, 0, STACK
        LOCFRAME XSTACK, 29, STACK
        LOCFRAME IOVERLAY, 0, STATIC
        LOCFRAME DOVERLAY, 0, STATIC
        ARGFRAME ISTACK, 0, STACK
        ARGFRAME PSTACK, 0, STACK
        ARGFRAME XSTACK, 29, STACK
        ARGFRAME IOVERLAY, 0, STATIC
        ARGFRAME DOVERLAY, 0, STATIC
        FUNCALL SampleApp_Send_P2P_Message, B_LUX_GetLux
        LOCFRAME ISTACK, 0, STACK
        LOCFRAME PSTACK, 0, STACK
        LOCFRAME XSTACK, 26, STACK
        LOCFRAME IOVERLAY, 0, STATIC
        LOCFRAME DOVERLAY, 0, STATIC
        ARGFRAME ISTACK, 0, STACK
        ARGFRAME PSTACK, 0, STACK
        ARGFRAME XSTACK, 26, STACK
        ARGFRAME IOVERLAY, 0, STATIC
        ARGFRAME DOVERLAY, 0, STATIC
        FUNCALL SampleApp_Send_P2P_Message, osal_memcpy
        LOCFRAME ISTACK, 0, STACK
        LOCFRAME PSTACK, 0, STACK
        LOCFRAME XSTACK, 29, STACK
        LOCFRAME IOVERLAY, 0, STATIC
        LOCFRAME DOVERLAY, 0, STATIC
        ARGFRAME ISTACK, 0, STACK
        ARGFRAME PSTACK, 0, STACK
        ARGFRAME XSTACK, 29, STACK
        ARGFRAME IOVERLAY, 0, STATIC
        ARGFRAME DOVERLAY, 0, STATIC
        FUNCALL SampleApp_Send_P2P_Message, osal_memcpy
        LOCFRAME ISTACK, 0, STACK
        LOCFRAME PSTACK, 0, STACK
        LOCFRAME XSTACK, 29, STACK
        LOCFRAME IOVERLAY, 0, STATIC
        LOCFRAME DOVERLAY, 0, STATIC
        ARGFRAME ISTACK, 0, STACK
        ARGFRAME PSTACK, 0, STACK
        ARGFRAME XSTACK, 29, STACK
        ARGFRAME IOVERLAY, 0, STATIC
        ARGFRAME DOVERLAY, 0, STATIC
        FUNCALL SampleApp_Send_P2P_Message, osal_memcpy
        LOCFRAME ISTACK, 0, STACK
        LOCFRAME PSTACK, 0, STACK
        LOCFRAME XSTACK, 29, STACK
        LOCFRAME IOVERLAY, 0, STATIC
        LOCFRAME DOVERLAY, 0, STATIC
        ARGFRAME ISTACK, 0, STACK
        ARGFRAME PSTACK, 0, STACK
        ARGFRAME XSTACK, 29, STACK
        ARGFRAME IOVERLAY, 0, STATIC
        ARGFRAME DOVERLAY, 0, STATIC
        FUNCALL SampleApp_Send_P2P_Message, osal_memcpy
        LOCFRAME ISTACK, 0, STACK
        LOCFRAME PSTACK, 0, STACK
        LOCFRAME XSTACK, 29, STACK
        LOCFRAME IOVERLAY, 0, STATIC
        LOCFRAME DOVERLAY, 0, STATIC
        ARGFRAME ISTACK, 0, STACK
        ARGFRAME PSTACK, 0, STACK
        ARGFRAME XSTACK, 29, STACK
        ARGFRAME IOVERLAY, 0, STATIC
        ARGFRAME DOVERLAY, 0, STATIC
        FUNCALL SampleApp_Send_P2P_Message, osal_memcpy
        LOCFRAME ISTACK, 0, STACK
        LOCFRAME PSTACK, 0, STACK
        LOCFRAME XSTACK, 29, STACK
        LOCFRAME IOVERLAY, 0, STATIC
        LOCFRAME DOVERLAY, 0, STATIC
        ARGFRAME ISTACK, 0, STACK
        ARGFRAME PSTACK, 0, STACK
        ARGFRAME XSTACK, 29, STACK
        ARGFRAME IOVERLAY, 0, STATIC
        ARGFRAME DOVERLAY, 0, STATIC
        FUNCALL SampleApp_Send_P2P_Message, osal_memcpy
        LOCFRAME ISTACK, 0, STACK
        LOCFRAME PSTACK, 0, STACK
        LOCFRAME XSTACK, 29, STACK
        LOCFRAME IOVERLAY, 0, STATIC
        LOCFRAME DOVERLAY, 0, STATIC
        ARGFRAME ISTACK, 0, STACK
        ARGFRAME PSTACK, 0, STACK
        ARGFRAME XSTACK, 29, STACK
        ARGFRAME IOVERLAY, 0, STATIC
        ARGFRAME DOVERLAY, 0, STATIC
        FUNCALL SampleApp_Send_P2P_Message, osal_memcpy
        LOCFRAME ISTACK, 0, STACK
        LOCFRAME PSTACK, 0, STACK
        LOCFRAME XSTACK, 29, STACK
        LOCFRAME IOVERLAY, 0, STATIC
        LOCFRAME DOVERLAY, 0, STATIC
        ARGFRAME ISTACK, 0, STACK
        ARGFRAME PSTACK, 0, STACK
        ARGFRAME XSTACK, 29, STACK
        ARGFRAME IOVERLAY, 0, STATIC
        ARGFRAME DOVERLAY, 0, STATIC
        FUNCALL SampleApp_Send_P2P_Message, osal_memcpy
        LOCFRAME ISTACK, 0, STACK
        LOCFRAME PSTACK, 0, STACK
        LOCFRAME XSTACK, 29, STACK
        LOCFRAME IOVERLAY, 0, STATIC
        LOCFRAME DOVERLAY, 0, STATIC
        ARGFRAME ISTACK, 0, STACK
        ARGFRAME PSTACK, 0, STACK
        ARGFRAME XSTACK, 29, STACK
        ARGFRAME IOVERLAY, 0, STATIC
        ARGFRAME DOVERLAY, 0, STATIC
        FUNCALL SampleApp_Send_P2P_Message, osal_memcpy
        LOCFRAME ISTACK, 0, STACK
        LOCFRAME PSTACK, 0, STACK
        LOCFRAME XSTACK, 29, STACK
        LOCFRAME IOVERLAY, 0, STATIC
        LOCFRAME DOVERLAY, 0, STATIC
        ARGFRAME ISTACK, 0, STACK
        ARGFRAME PSTACK, 0, STACK
        ARGFRAME XSTACK, 29, STACK
        ARGFRAME IOVERLAY, 0, STATIC
        ARGFRAME DOVERLAY, 0, STATIC
        FUNCALL SampleApp_Send_P2P_Message, osal_memcpy
        LOCFRAME ISTACK, 0, STACK
        LOCFRAME PSTACK, 0, STACK
        LOCFRAME XSTACK, 29, STACK
        LOCFRAME IOVERLAY, 0, STATIC
        LOCFRAME DOVERLAY, 0, STATIC
        ARGFRAME ISTACK, 0, STACK
        ARGFRAME PSTACK, 0, STACK
        ARGFRAME XSTACK, 29, STACK
        ARGFRAME IOVERLAY, 0, STATIC
        ARGFRAME DOVERLAY, 0, STATIC
        FUNCALL SampleApp_Send_P2P_Message, AF_DataRequest
        LOCFRAME ISTACK, 0, STACK
        LOCFRAME PSTACK, 0, STACK
        LOCFRAME XSTACK, 35, STACK
        LOCFRAME IOVERLAY, 0, STATIC
        LOCFRAME DOVERLAY, 0, STATIC
        ARGFRAME ISTACK, 0, STACK
        ARGFRAME PSTACK, 0, STACK
        ARGFRAME XSTACK, 35, STACK
        ARGFRAME IOVERLAY, 0, STATIC
        ARGFRAME DOVERLAY, 0, STATIC
        FUNCALL SampleApp_Send_P2P_Message, osal_memset
        LOCFRAME ISTACK, 0, STACK
        LOCFRAME PSTACK, 0, STACK
        LOCFRAME XSTACK, 26, STACK
        LOCFRAME IOVERLAY, 0, STATIC
        LOCFRAME DOVERLAY, 0, STATIC
        ARGFRAME ISTACK, 0, STACK
        ARGFRAME PSTACK, 0, STACK
        ARGFRAME XSTACK, 26, STACK
        ARGFRAME IOVERLAY, 0, STATIC
        ARGFRAME DOVERLAY, 0, STATIC
        FUNCALL SampleApp_Send_P2P_Message, osal_memcpy
        LOCFRAME ISTACK, 0, STACK
        LOCFRAME PSTACK, 0, STACK
        LOCFRAME XSTACK, 29, STACK
        LOCFRAME IOVERLAY, 0, STATIC
        LOCFRAME DOVERLAY, 0, STATIC
        ARGFRAME ISTACK, 0, STACK
        ARGFRAME PSTACK, 0, STACK
        ARGFRAME XSTACK, 29, STACK
        ARGFRAME IOVERLAY, 0, STATIC
        ARGFRAME DOVERLAY, 0, STATIC
        FUNCALL SampleApp_Send_P2P_Message, osal_memcpy
        LOCFRAME ISTACK, 0, STACK
        LOCFRAME PSTACK, 0, STACK
        LOCFRAME XSTACK, 29, STACK
        LOCFRAME IOVERLAY, 0, STATIC
        LOCFRAME DOVERLAY, 0, STATIC
        ARGFRAME ISTACK, 0, STACK
        ARGFRAME PSTACK, 0, STACK
        ARGFRAME XSTACK, 29, STACK
        ARGFRAME IOVERLAY, 0, STATIC
        ARGFRAME DOVERLAY, 0, STATIC
        FUNCALL SampleApp_Send_P2P_Message, osal_memcpy
        LOCFRAME ISTACK, 0, STACK
        LOCFRAME PSTACK, 0, STACK
        LOCFRAME XSTACK, 29, STACK
        LOCFRAME IOVERLAY, 0, STATIC
        LOCFRAME DOVERLAY, 0, STATIC
        ARGFRAME ISTACK, 0, STACK
        ARGFRAME PSTACK, 0, STACK
        ARGFRAME XSTACK, 29, STACK
        ARGFRAME IOVERLAY, 0, STATIC
        ARGFRAME DOVERLAY, 0, STATIC
        FUNCALL SampleApp_Send_P2P_Message, HalLcdWriteString
        LOCFRAME ISTACK, 0, STACK
        LOCFRAME PSTACK, 0, STACK
        LOCFRAME XSTACK, 26, STACK
        LOCFRAME IOVERLAY, 0, STATIC
        LOCFRAME DOVERLAY, 0, STATIC
        ARGFRAME ISTACK, 0, STACK
        ARGFRAME PSTACK, 0, STACK
        ARGFRAME XSTACK, 26, STACK
        ARGFRAME IOVERLAY, 0, STATIC
        ARGFRAME DOVERLAY, 0, STATIC
        FUNCALL SampleApp_Send_P2P_Message, osal_memset
        LOCFRAME ISTACK, 0, STACK
        LOCFRAME PSTACK, 0, STACK
        LOCFRAME XSTACK, 26, STACK
        LOCFRAME IOVERLAY, 0, STATIC
        LOCFRAME DOVERLAY, 0, STATIC
        ARGFRAME ISTACK, 0, STACK
        ARGFRAME PSTACK, 0, STACK
        ARGFRAME XSTACK, 26, STACK
        ARGFRAME IOVERLAY, 0, STATIC
        ARGFRAME DOVERLAY, 0, STATIC
        FUNCALL SampleApp_Send_P2P_Message, osal_memcpy
        LOCFRAME ISTACK, 0, STACK
        LOCFRAME PSTACK, 0, STACK
        LOCFRAME XSTACK, 29, STACK
        LOCFRAME IOVERLAY, 0, STATIC
        LOCFRAME DOVERLAY, 0, STATIC
        ARGFRAME ISTACK, 0, STACK
        ARGFRAME PSTACK, 0, STACK
        ARGFRAME XSTACK, 29, STACK
        ARGFRAME IOVERLAY, 0, STATIC
        ARGFRAME DOVERLAY, 0, STATIC
        FUNCALL SampleApp_Send_P2P_Message, osal_memcpy
        LOCFRAME ISTACK, 0, STACK
        LOCFRAME PSTACK, 0, STACK
        LOCFRAME XSTACK, 29, STACK
        LOCFRAME IOVERLAY, 0, STATIC
        LOCFRAME DOVERLAY, 0, STATIC
        ARGFRAME ISTACK, 0, STACK
        ARGFRAME PSTACK, 0, STACK
        ARGFRAME XSTACK, 29, STACK
        ARGFRAME IOVERLAY, 0, STATIC
        ARGFRAME DOVERLAY, 0, STATIC
        FUNCALL SampleApp_Send_P2P_Message, osal_memcpy
        LOCFRAME ISTACK, 0, STACK
        LOCFRAME PSTACK, 0, STACK
        LOCFRAME XSTACK, 29, STACK
        LOCFRAME IOVERLAY, 0, STATIC
        LOCFRAME DOVERLAY, 0, STATIC
        ARGFRAME ISTACK, 0, STACK
        ARGFRAME PSTACK, 0, STACK
        ARGFRAME XSTACK, 29, STACK
        ARGFRAME IOVERLAY, 0, STATIC
        ARGFRAME DOVERLAY, 0, STATIC
        FUNCALL SampleApp_Send_P2P_Message, HalLcdWriteString
        LOCFRAME ISTACK, 0, STACK
        LOCFRAME PSTACK, 0, STACK
        LOCFRAME XSTACK, 26, STACK
        LOCFRAME IOVERLAY, 0, STATIC
        LOCFRAME DOVERLAY, 0, STATIC
        ARGFRAME ISTACK, 0, STACK
        ARGFRAME PSTACK, 0, STACK
        ARGFRAME XSTACK, 26, STACK
        ARGFRAME IOVERLAY, 0, STATIC
        ARGFRAME DOVERLAY, 0, STATIC
        FUNCALL SampleApp_Send_P2P_Message, osal_memset
        LOCFRAME ISTACK, 0, STACK
        LOCFRAME PSTACK, 0, STACK
        LOCFRAME XSTACK, 26, STACK
        LOCFRAME IOVERLAY, 0, STATIC
        LOCFRAME DOVERLAY, 0, STATIC
        ARGFRAME ISTACK, 0, STACK
        ARGFRAME PSTACK, 0, STACK
        ARGFRAME XSTACK, 26, STACK
        ARGFRAME IOVERLAY, 0, STATIC
        ARGFRAME DOVERLAY, 0, STATIC
        FUNCALL SampleApp_Send_P2P_Message, osal_memcpy
        LOCFRAME ISTACK, 0, STACK
        LOCFRAME PSTACK, 0, STACK
        LOCFRAME XSTACK, 29, STACK
        LOCFRAME IOVERLAY, 0, STATIC
        LOCFRAME DOVERLAY, 0, STATIC
        ARGFRAME ISTACK, 0, STACK
        ARGFRAME PSTACK, 0, STACK
        ARGFRAME XSTACK, 29, STACK
        ARGFRAME IOVERLAY, 0, STATIC
        ARGFRAME DOVERLAY, 0, STATIC
        FUNCALL SampleApp_Send_P2P_Message, osal_memcpy
        LOCFRAME ISTACK, 0, STACK
        LOCFRAME PSTACK, 0, STACK
        LOCFRAME XSTACK, 29, STACK
        LOCFRAME IOVERLAY, 0, STATIC
        LOCFRAME DOVERLAY, 0, STATIC
        ARGFRAME ISTACK, 0, STACK
        ARGFRAME PSTACK, 0, STACK
        ARGFRAME XSTACK, 29, STACK
        ARGFRAME IOVERLAY, 0, STATIC
        ARGFRAME DOVERLAY, 0, STATIC
        FUNCALL SampleApp_Send_P2P_Message, osal_memcpy
        LOCFRAME ISTACK, 0, STACK
        LOCFRAME PSTACK, 0, STACK
        LOCFRAME XSTACK, 29, STACK
        LOCFRAME IOVERLAY, 0, STATIC
        LOCFRAME DOVERLAY, 0, STATIC
        ARGFRAME ISTACK, 0, STACK
        ARGFRAME PSTACK, 0, STACK
        ARGFRAME XSTACK, 29, STACK
        ARGFRAME IOVERLAY, 0, STATIC
        ARGFRAME DOVERLAY, 0, STATIC
        FUNCALL SampleApp_Send_P2P_Message, HalLcdWriteString
        LOCFRAME ISTACK, 0, STACK
        LOCFRAME PSTACK, 0, STACK
        LOCFRAME XSTACK, 26, STACK
        LOCFRAME IOVERLAY, 0, STATIC
        LOCFRAME DOVERLAY, 0, STATIC
        ARGFRAME ISTACK, 0, STACK
        ARGFRAME PSTACK, 0, STACK
        ARGFRAME XSTACK, 26, STACK
        ARGFRAME IOVERLAY, 0, STATIC
        ARGFRAME DOVERLAY, 0, STATIC
        FUNCALL SampleApp_Send_P2P_Message, osal_memset
        LOCFRAME ISTACK, 0, STACK
        LOCFRAME PSTACK, 0, STACK
        LOCFRAME XSTACK, 26, STACK
        LOCFRAME IOVERLAY, 0, STATIC
        LOCFRAME DOVERLAY, 0, STATIC
        ARGFRAME ISTACK, 0, STACK
        ARGFRAME PSTACK, 0, STACK
        ARGFRAME XSTACK, 26, STACK
        ARGFRAME IOVERLAY, 0, STATIC
        ARGFRAME DOVERLAY, 0, STATIC
        FUNCALL SampleApp_Send_P2P_Message, osal_memcpy
        LOCFRAME ISTACK, 0, STACK
        LOCFRAME PSTACK, 0, STACK
        LOCFRAME XSTACK, 29, STACK
        LOCFRAME IOVERLAY, 0, STATIC
        LOCFRAME DOVERLAY, 0, STATIC
        ARGFRAME ISTACK, 0, STACK
        ARGFRAME PSTACK, 0, STACK
        ARGFRAME XSTACK, 29, STACK
        ARGFRAME IOVERLAY, 0, STATIC
        ARGFRAME DOVERLAY, 0, STATIC
        FUNCALL SampleApp_Send_P2P_Message, osal_memcpy
        LOCFRAME ISTACK, 0, STACK
        LOCFRAME PSTACK, 0, STACK
        LOCFRAME XSTACK, 29, STACK
        LOCFRAME IOVERLAY, 0, STATIC
        LOCFRAME DOVERLAY, 0, STATIC
        ARGFRAME ISTACK, 0, STACK
        ARGFRAME PSTACK, 0, STACK
        ARGFRAME XSTACK, 29, STACK
        ARGFRAME IOVERLAY, 0, STATIC
        ARGFRAME DOVERLAY, 0, STATIC
        FUNCALL SampleApp_Send_P2P_Message, osal_memcpy
        LOCFRAME ISTACK, 0, STACK
        LOCFRAME PSTACK, 0, STACK
        LOCFRAME XSTACK, 29, STACK
        LOCFRAME IOVERLAY, 0, STATIC
        LOCFRAME DOVERLAY, 0, STATIC
        ARGFRAME ISTACK, 0, STACK
        ARGFRAME PSTACK, 0, STACK
        ARGFRAME XSTACK, 29, STACK
        ARGFRAME IOVERLAY, 0, STATIC
        ARGFRAME DOVERLAY, 0, STATIC
        FUNCALL SampleApp_Send_P2P_Message, HalLcdWriteString
        LOCFRAME ISTACK, 0, STACK
        LOCFRAME PSTACK, 0, STACK
        LOCFRAME XSTACK, 26, STACK
        LOCFRAME IOVERLAY, 0, STATIC
        LOCFRAME DOVERLAY, 0, STATIC
        ARGFRAME ISTACK, 0, STACK
        ARGFRAME PSTACK, 0, STACK
        ARGFRAME XSTACK, 26, STACK
        ARGFRAME IOVERLAY, 0, STATIC
        ARGFRAME DOVERLAY, 0, STATIC
        MOV     A,#-0x17
        LCALL   ?BANKED_ENTER_XDATA
        CFI DPH0 load(1, XDATA, add(CFA_XSP16, literal(-1)))
        CFI DPL0 load(1, XDATA, add(CFA_XSP16, literal(-2)))
        CFI ?BRET_EXT load(1, XDATA, add(CFA_XSP16, literal(-3)))
        CFI ?RET_HIGH load(1, XDATA, add(CFA_XSP16, literal(-4)))
        CFI ?RET_LOW load(1, XDATA, add(CFA_XSP16, literal(-5)))
        CFI R7 load(1, XDATA, add(CFA_XSP16, literal(-6)))
        CFI V14 load(1, XDATA, add(CFA_XSP16, literal(-7)))
        CFI V13 load(1, XDATA, add(CFA_XSP16, literal(-8)))
        CFI V12 load(1, XDATA, add(CFA_XSP16, literal(-9)))
        CFI V11 load(1, XDATA, add(CFA_XSP16, literal(-10)))
        CFI V10 load(1, XDATA, add(CFA_XSP16, literal(-11)))
        CFI V9 load(1, XDATA, add(CFA_XSP16, literal(-12)))
        CFI V8 load(1, XDATA, add(CFA_XSP16, literal(-13)))
        CFI V7 load(1, XDATA, add(CFA_XSP16, literal(-14)))
        CFI V6 load(1, XDATA, add(CFA_XSP16, literal(-15)))
        CFI V5 load(1, XDATA, add(CFA_XSP16, literal(-16)))
        CFI V4 load(1, XDATA, add(CFA_XSP16, literal(-17)))
        CFI V3 load(1, XDATA, add(CFA_XSP16, literal(-18)))
        CFI V2 load(1, XDATA, add(CFA_XSP16, literal(-19)))
        CFI V1 load(1, XDATA, add(CFA_XSP16, literal(-20)))
        CFI V0 load(1, XDATA, add(CFA_XSP16, literal(-21)))
        CFI VB load(1, XDATA, add(CFA_XSP16, literal(-22)))
        CFI R6 load(1, XDATA, add(CFA_XSP16, literal(-23)))
        CFI CFA_SP SP+0
        CFI CFA_XSP16 add(XSP16, 23)
        ; Saved register size: 23
        ; Auto size: 3
        MOV     A,#-0x3
        LCALL   ?ALLOC_XSTACK8
        CFI CFA_XSP16 add(XSP16, 26)
//  360   unsigned long light_data;
//  361   
//  362   DHT11();//获取温湿度
        ; Setup parameters for call to function DHT11
        LCALL   ??DHT11?relay
//  363   Temp[0] = wendu_shi+48;
        MOV     DPTR,#wendu_shi
        MOVX    A,@DPTR
        ADD     A,#0x30
        MOV     DPTR,#Temp
        MOVX    @DPTR,A
//  364   Temp[1] = wendu_ge+48; 
        MOV     DPTR,#wendu_ge
        MOVX    A,@DPTR
        ADD     A,#0x30
        MOV     DPTR,#Temp + 1
        MOVX    @DPTR,A
//  365   Temp[2] = '\0';
        INC     DPTR
        CLR     A
        MOVX    @DPTR,A
//  366   Humidity[0] = shidu_shi+48;
        MOV     DPTR,#shidu_shi
        MOVX    A,@DPTR
        ADD     A,#0x30
        MOV     DPTR,#Humidity
        MOVX    @DPTR,A
//  367   Humidity[1] = shidu_ge+48;
        MOV     DPTR,#shidu_ge
        MOVX    A,@DPTR
        ADD     A,#0x30
        MOV     DPTR,#Humidity + 1
        MOVX    @DPTR,A
//  368   Humidity[2] = '\0'; 
        INC     DPTR
        CLR     A
        MOVX    @DPTR,A
//  369   
//  370   CO2=get_CO2_Message(CO2Curve);
        ; Setup parameters for call to function get_CO2_Message
        MOV     R2,#CO2Curve & 0xff
        MOV     R3,#(CO2Curve >> 8) & 0xff
        LCALL   ??get_CO2_Message?relay
        MOV     DPTR,#CO2
        MOV     A,R2
        MOVX    @DPTR,A
        INC     DPTR
        MOV     A,R3
        MOVX    @DPTR,A
//  371   if(CO2==-1) osal_memcpy(volt, "<=400", 5);//返回-1表示当前气体含量小于400ppm
        MOV     DPTR,#CO2
        MOVX    A,@DPTR
        CPL     A
        JNZ     ??SampleApp_Send_P2P_Message_0
        INC     DPTR
        MOVX    A,@DPTR
        CPL     A
??SampleApp_Send_P2P_Message_0:
        JNZ     ??SampleApp_Send_P2P_Message_1
        ; Setup parameters for call to function osal_memcpy
        MOV     ?V0 + 0,#`?<Constant "<=400">` & 0xff
        MOV     ?V0 + 1,#(`?<Constant "<=400">` >> 8) & 0xff
        MOV     ?V0 + 2,#0x0
        MOV     R0,#?V0 + 0
        LCALL   ?PUSH_XSTACK_I_THREE
        CFI CFA_XSP16 add(XSP16, 29)
        MOV     R4,#0x5
        MOV     R5,#0x0
        MOV     R2,#volt & 0xff
        MOV     R3,#(volt >> 8) & 0xff
        LCALL   ??Subroutine9_0 & 0xFFFF
??CrossCallReturnLabel_21:
        LCALL   ?DEALLOC_XSTACK8
        CFI CFA_XSP16 add(XSP16, 26)
        SJMP    ??SampleApp_Send_P2P_Message_2
//  372   else
//  373   {
//  374     volt[0]=(uint8)(CO2/10000+48); 
??SampleApp_Send_P2P_Message_1:
        MOV     DPTR,#CO2
        MOVX    A,@DPTR
        MOV     R0,A
        INC     DPTR
        MOVX    A,@DPTR
        MOV     R1,A
        MOV     R2,#0x10
        MOV     R3,#0x27
        LCALL   ?S_DIV_MOD
        MOV     A,R0
        ADD     A,#0x30
        MOV     DPTR,#volt
        LCALL   ?Subroutine4 & 0xFFFF
//  375     volt[1]=(uint8)(CO2/1000%10+48);
//  376     volt[2]=(uint8)(CO2/100%10+48); 
//  377     volt[3]=(uint8)(CO2/10%10+48); 
//  378     volt[4]=(uint8)(CO2%10+48);
//  379   }
??CrossCallReturnLabel_10:
        MOV     R2,#-0x18
        MOV     R3,#0x3
        LCALL   ?S_DIV_MOD
        MOV     R2,#0xa
        MOV     R3,#0x0
        LCALL   ?S_DIV_MOD
        MOV     A,R2
        ADD     A,#0x30
        MOV     DPTR,#volt + 1
        LCALL   ?Subroutine4 & 0xFFFF
??CrossCallReturnLabel_11:
        MOV     R2,#0x64
        MOV     R3,#0x0
        LCALL   ?S_DIV_MOD
        MOV     R2,#0xa
        MOV     R3,#0x0
        LCALL   ?S_DIV_MOD
        MOV     A,R2
        ADD     A,#0x30
        MOV     DPTR,#volt + 2
        LCALL   ?Subroutine2 & 0xFFFF
??CrossCallReturnLabel_6:
        LCALL   ?S_DIV_MOD
        MOV     R2,#0xa
        MOV     R3,#0x0
        LCALL   ?S_DIV_MOD
        MOV     A,R2
        ADD     A,#0x30
        MOV     DPTR,#volt + 3
        LCALL   ?Subroutine2 & 0xFFFF
??CrossCallReturnLabel_7:
        LCALL   ?S_DIV_MOD
        MOV     A,R2
        ADD     A,#0x30
        MOV     DPTR,#volt + 4
        MOVX    @DPTR,A
//  380   
//  381   light_data = B_LUX_GetLux();    //读取光照数据
??SampleApp_Send_P2P_Message_2:
        ; Setup parameters for call to function B_LUX_GetLux
        LCALL   ??B_LUX_GetLux?relay
//  382   light[0]=light_data/10000+0x30;
        MOV     ?V0 + 0,R2
        MOV     ?V0 + 1,R3
        MOV     ?V0 + 2,R4
        MOV     ?V0 + 3,R5
        MOV     DPTR,#__Constant_2710
        MOV     R0,#?V0 + 8
        LCALL   ?L_MOV_X
        MOV     R0,#?V0 + 0
        MOV     R1,#?V0 + 8
        LCALL   ?UL_DIV_MOD
        MOV     A,?V0 + 0
        ADD     A,#0x30
        MOV     DPTR,#light
        MOVX    @DPTR,A
//  383   light_data=light_data%10000;   //取余运算
        MOV     ?V0 + 0,R2
        MOV     ?V0 + 1,R3
        MOV     ?V0 + 2,R4
        MOV     ?V0 + 3,R5
        MOV     DPTR,#__Constant_2710
        MOV     R0,#?V0 + 4
        LCALL   ?L_MOV_X
        MOV     R0,#?V0 + 0
        MOV     R1,#?V0 + 4
        LCALL   ?UL_DIV_MOD
//  384   light[1]=light_data/1000+0x30;
        MOV     ?V0 + 0,?V0 + 4
        MOV     ?V0 + 1,?V0 + 5
        MOV     ?V0 + 2,?V0 + 6
        MOV     ?V0 + 3,?V0 + 7
        MOV     DPTR,#__Constant_3e8
        MOV     R0,#?V0 + 8
        LCALL   ?L_MOV_X
        MOV     R0,#?V0 + 0
        MOV     R1,#?V0 + 8
        LCALL   ?UL_DIV_MOD
        MOV     A,?V0 + 0
        ADD     A,#0x30
        MOV     DPTR,#light + 1
        LCALL   ?Subroutine3 & 0xFFFF
//  385   light_data=light_data%1000;    //取余运算
??CrossCallReturnLabel_8:
        MOV     DPTR,#__Constant_3e8
        MOV     R0,#?V0 + 4
        LCALL   ?L_MOV_X
        MOV     R0,#?V0 + 0
        MOV     R1,#?V0 + 4
        LCALL   ?UL_DIV_MOD
//  386   light[2]=light_data/100+0x30;
        MOV     ?V0 + 0,?V0 + 4
        MOV     ?V0 + 1,?V0 + 5
        MOV     ?V0 + 2,?V0 + 6
        MOV     ?V0 + 3,?V0 + 7
        MOV     DPTR,#__Constant_64
        MOV     R0,#?V0 + 8
        LCALL   ?L_MOV_X
        MOV     R0,#?V0 + 0
        MOV     R1,#?V0 + 8
        LCALL   ?UL_DIV_MOD
        MOV     A,?V0 + 0
        ADD     A,#0x30
        MOV     DPTR,#light + 2
        LCALL   ?Subroutine3 & 0xFFFF
//  387   light_data=light_data%100;     //取余运算
??CrossCallReturnLabel_9:
        MOV     DPTR,#__Constant_64
        MOV     R0,#?V0 + 4
        LCALL   ?L_MOV_X
        MOV     R0,#?V0 + 0
        MOV     R1,#?V0 + 4
        LCALL   ?UL_DIV_MOD
//  388   light[3]=light_data/10+0x30;
        MOV     ?V0 + 0,?V0 + 4
        MOV     ?V0 + 1,?V0 + 5
        MOV     ?V0 + 2,?V0 + 6
        MOV     ?V0 + 3,?V0 + 7
        MOV     DPTR,#__Constant_a
        MOV     R0,#?V0 + 8
        LCALL   ?L_MOV_X
        MOV     R0,#?V0 + 0
        MOV     R1,#?V0 + 8
        LCALL   ?UL_DIV_MOD
        MOV     A,?V0 + 0
        ADD     A,#0x30
        MOV     DPTR,#light + 3
        MOVX    @DPTR,A
//  389   light_data=light_data%10;      //取余运算
//  390   light[4]=light_data+0x30; 
        MOV     DPTR,#__Constant_a
        MOV     R0,#?V0 + 0
        LCALL   ?L_MOV_X
        MOV     R0,#?V0 + 4
        MOV     R1,#?V0 + 0
        LCALL   ?UL_DIV_MOD
        MOV     A,?V0 + 0
        ADD     A,#0x30
        MOV     DPTR,#light + 4
        MOVX    @DPTR,A
//  391 
//  392   //将数据整合后方便发给协调器显示
//  393   osal_memcpy(strTemp, "1", 1);//315电子 这里是终端编号，改动为2下载到2号终端。
        ; Setup parameters for call to function osal_memcpy
        MOV     ?V0 + 0,#`?<Constant "1">` & 0xff
        MOV     ?V0 + 1,#(`?<Constant "1">` >> 8) & 0xff
        MOV     ?V0 + 2,#0x0
        MOV     R0,#?V0 + 0
        LCALL   ?PUSH_XSTACK_I_THREE
        CFI CFA_XSP16 add(XSP16, 29)
        MOV     R4,#0x1
        LCALL   ??Subroutine8_0 & 0xFFFF
??CrossCallReturnLabel_20:
        LCALL   ?DEALLOC_XSTACK8
        CFI CFA_XSP16 add(XSP16, 26)
//  394   osal_memcpy(&strTemp[1], " ", 1);
        MOV     ?V0 + 12,#`?<Constant " ">` & 0xff
        MOV     ?V0 + 13,#(`?<Constant " ">` >> 8) & 0xff
        MOV     ?V0 + 14,#0x0
        ; Setup parameters for call to function osal_memcpy
        MOV     R0,#?V0 + 12
        LCALL   ?PUSH_XSTACK_I_THREE
        CFI CFA_XSP16 add(XSP16, 29)
        MOV     R4,#0x1
        MOV     R5,#0x0
        MOV     R2,#(strTemp + 1) & 0xff
        MOV     R3,#((strTemp + 1) >> 8) & 0xff
        LCALL   ??Subroutine9_0 & 0xFFFF
??CrossCallReturnLabel_22:
        LCALL   ?DEALLOC_XSTACK8
        CFI CFA_XSP16 add(XSP16, 26)
//  395   osal_memcpy(&strTemp[2], Temp, 3); 
        MOV     ?V0 + 0,#Temp & 0xff
        MOV     ?V0 + 1,#(Temp >> 8) & 0xff
        ; Setup parameters for call to function osal_memcpy
        MOV     R0,#?V0 + 0
        LCALL   ?PUSH_XSTACK_I_THREE
        CFI CFA_XSP16 add(XSP16, 29)
        MOV     R4,#0x3
        MOV     R5,#0x0
        MOV     R2,#(strTemp + 2) & 0xff
        MOV     R3,#((strTemp + 2) >> 8) & 0xff
        LCALL   ??Subroutine9_0 & 0xFFFF
??CrossCallReturnLabel_23:
        LCALL   ?DEALLOC_XSTACK8
        CFI CFA_XSP16 add(XSP16, 26)
//  396   osal_memcpy(&strTemp[5], " ", 1); 
        ; Setup parameters for call to function osal_memcpy
        MOV     R0,#?V0 + 12
        LCALL   ?PUSH_XSTACK_I_THREE
        CFI CFA_XSP16 add(XSP16, 29)
        MOV     R4,#0x1
        MOV     R5,#0x0
        MOV     R2,#(strTemp + 5) & 0xff
        MOV     R3,#((strTemp + 5) >> 8) & 0xff
        LCALL   ??Subroutine9_0 & 0xFFFF
??CrossCallReturnLabel_24:
        LCALL   ?DEALLOC_XSTACK8
        CFI CFA_XSP16 add(XSP16, 26)
//  397   osal_memcpy(&strTemp[6], Humidity, 3);
        MOV     ?V0 + 4,#Humidity & 0xff
        MOV     ?V0 + 5,#(Humidity >> 8) & 0xff
        MOV     ?V0 + 6,#0x0
        ; Setup parameters for call to function osal_memcpy
        MOV     R0,#?V0 + 4
        LCALL   ?PUSH_XSTACK_I_THREE
        CFI CFA_XSP16 add(XSP16, 29)
        MOV     R4,#0x3
        MOV     R5,#0x0
        MOV     R2,#(strTemp + 6) & 0xff
        MOV     R3,#((strTemp + 6) >> 8) & 0xff
        LCALL   ??Subroutine9_0 & 0xFFFF
??CrossCallReturnLabel_25:
        LCALL   ?DEALLOC_XSTACK8
        CFI CFA_XSP16 add(XSP16, 26)
//  398   osal_memcpy(&strTemp[9], " ", 1);
        ; Setup parameters for call to function osal_memcpy
        MOV     R0,#?V0 + 12
        LCALL   ?PUSH_XSTACK_I_THREE
        CFI CFA_XSP16 add(XSP16, 29)
        MOV     R4,#0x1
        MOV     R5,#0x0
        MOV     R2,#(strTemp + 9) & 0xff
        MOV     R3,#((strTemp + 9) >> 8) & 0xff
        LCALL   ??Subroutine9_0 & 0xFFFF
??CrossCallReturnLabel_26:
        LCALL   ?DEALLOC_XSTACK8
        CFI CFA_XSP16 add(XSP16, 26)
//  399   osal_memcpy(&strTemp[10], volt, 5);
        MOV     DPL,?XSP + 0
        MOV     DPH,?XSP + 1
        MOV     A,#volt & 0xff
        MOVX    @DPTR,A
        INC     DPTR
        MOV     A,#(volt >> 8) & 0xff
        MOVX    @DPTR,A
        INC     DPTR
        CLR     A
        MOVX    @DPTR,A
        ; Setup parameters for call to function osal_memcpy
        MOV     DPL,?XSP + 0
        MOV     DPH,?XSP + 1
        LCALL   ?PUSH_XSTACK8_X_THREE
        CFI CFA_XSP16 add(XSP16, 29)
        MOV     R4,#0x5
        MOV     R5,#0x0
        MOV     R2,#(strTemp + 10) & 0xff
        MOV     R3,#((strTemp + 10) >> 8) & 0xff
        LCALL   ??Subroutine9_0 & 0xFFFF
??CrossCallReturnLabel_27:
        LCALL   ?DEALLOC_XSTACK8
        CFI CFA_XSP16 add(XSP16, 26)
//  400   osal_memcpy(&strTemp[15], " ", 1);
        ; Setup parameters for call to function osal_memcpy
        MOV     R0,#?V0 + 12
        LCALL   ?PUSH_XSTACK_I_THREE
        CFI CFA_XSP16 add(XSP16, 29)
        MOV     R4,#0x1
        MOV     R5,#0x0
        MOV     R2,#(strTemp + 15) & 0xff
        MOV     R3,#((strTemp + 15) >> 8) & 0xff
        LCALL   ??Subroutine9_0 & 0xFFFF
??CrossCallReturnLabel_28:
        LCALL   ?DEALLOC_XSTACK8
        CFI CFA_XSP16 add(XSP16, 26)
//  401   osal_memcpy(&strTemp[16], light, 5);
        MOV     ?V0 + 8,#light & 0xff
        MOV     ?V0 + 9,#(light >> 8) & 0xff
        MOV     ?V0 + 10,#0x0
        ; Setup parameters for call to function osal_memcpy
        MOV     R0,#?V0 + 8
        LCALL   ?PUSH_XSTACK_I_THREE
        CFI CFA_XSP16 add(XSP16, 29)
        MOV     R4,#0x5
        MOV     R5,#0x0
        MOV     R2,#(strTemp + 16) & 0xff
        MOV     R3,#((strTemp + 16) >> 8) & 0xff
        LCALL   ??Subroutine9_0 & 0xFFFF
??CrossCallReturnLabel_29:
        LCALL   ?DEALLOC_XSTACK8
        CFI CFA_XSP16 add(XSP16, 26)
//  402   osal_memcpy(&strTemp[21], " ", 1);
        ; Setup parameters for call to function osal_memcpy
        MOV     R0,#?V0 + 12
        LCALL   ?PUSH_XSTACK_I_THREE
        CFI CFA_XSP16 add(XSP16, 29)
        MOV     R4,#0x1
        MOV     R5,#0x0
        MOV     R2,#(strTemp + 21) & 0xff
        MOV     R3,#((strTemp + 21) >> 8) & 0xff
        LCALL   ??Subroutine9_0 & 0xFFFF
??CrossCallReturnLabel_30:
        LCALL   ?DEALLOC_XSTACK8
        CFI CFA_XSP16 add(XSP16, 26)
//  403   
//  404   
//  405  //无线发送，将数据送至协调器
//  406   AF_DataRequest( &SampleApp_P2P_DstAddr, &SampleApp_epDesc,
//  407                        SAMPLEAPP_PERIODIC_CLUSTERID1,
//  408                        22,
//  409                        strTemp,
//  410                        &SampleApp_TransID,
//  411                        AF_DISCV_ROUTE,
//  412                        AF_DEFAULT_RADIUS );  
        ; Setup parameters for call to function AF_DataRequest
        MOV     ?V0 + 3,#0x1e
        MOV     R0,#?V0 + 3
        LCALL   ?PUSH_XSTACK_I_ONE
        CFI CFA_XSP16 add(XSP16, 27)
        MOV     ?V0 + 12,#SampleApp_TransID & 0xff
        MOV     ?V0 + 13,#(SampleApp_TransID >> 8) & 0xff
        MOV     R0,#?V0 + 12
        LCALL   ?PUSH_XSTACK_I_TWO
        CFI CFA_XSP16 add(XSP16, 29)
        MOV     ?V0 + 12,#strTemp & 0xff
        MOV     ?V0 + 13,#(strTemp >> 8) & 0xff
        MOV     R0,#?V0 + 12
        LCALL   ?PUSH_XSTACK_I_TWO
        CFI CFA_XSP16 add(XSP16, 31)
        MOV     ?V0 + 12,#0x16
        MOV     ?V0 + 13,#0x0
        MOV     R0,#?V0 + 12
        LCALL   ?PUSH_XSTACK_I_TWO
        CFI CFA_XSP16 add(XSP16, 33)
        MOV     ?V0 + 12,#0x1
        MOV     R0,#?V0 + 12
        LCALL   ?PUSH_XSTACK_I_TWO
        CFI CFA_XSP16 add(XSP16, 35)
        MOV     R1,#0x20
        MOV     R4,#SampleApp_epDesc & 0xff
        MOV     R5,#(SampleApp_epDesc >> 8) & 0xff
        MOV     R2,#SampleApp_P2P_DstAddr & 0xff
        MOV     R3,#(SampleApp_P2P_DstAddr >> 8) & 0xff
        LCALL   ??AF_DataRequest?relay
        MOV     A,#0x9
        LCALL   ?DEALLOC_XSTACK8
        CFI CFA_XSP16 add(XSP16, 26)
//  413   
//  414   osal_memset(strTemp, 0, 22 );
        ; Setup parameters for call to function osal_memset
        MOV     R4,#0x16
        MOV     R5,#0x0
        MOV     R1,#0x0
        MOV     R2,#strTemp & 0xff
        MOV     R3,#(strTemp >> 8) & 0xff
        LCALL   ??osal_memset?relay
//  415   osal_memcpy(strTemp, "Tem:", 4);
        ; Setup parameters for call to function osal_memcpy
        MOV     ?V0 + 12,#`?<Constant "Tem:">` & 0xff
        MOV     ?V0 + 13,#(`?<Constant "Tem:">` >> 8) & 0xff
        MOV     R0,#?V0 + 12
        LCALL   ?PUSH_XSTACK_I_THREE
        CFI CFA_XSP16 add(XSP16, 29)
        LCALL   ?Subroutine6 & 0xFFFF
??CrossCallReturnLabel_16:
        LCALL   ?DEALLOC_XSTACK8
        CFI CFA_XSP16 add(XSP16, 26)
//  416   osal_memcpy(&strTemp[4], Temp, 2); 
        ; Setup parameters for call to function osal_memcpy
        MOV     R0,#?V0 + 0
        LCALL   ?PUSH_XSTACK_I_THREE
        CFI CFA_XSP16 add(XSP16, 29)
        MOV     R4,#0x2
        MOV     R5,#0x0
        MOV     R2,#(strTemp + 4) & 0xff
        MOV     R3,#((strTemp + 4) >> 8) & 0xff
        LCALL   ??Subroutine9_0 & 0xFFFF
??CrossCallReturnLabel_31:
        LCALL   ?DEALLOC_XSTACK8
        CFI CFA_XSP16 add(XSP16, 26)
//  417   osal_memcpy(&strTemp[6], "C", 1); 
        ; Setup parameters for call to function osal_memcpy
        MOV     ?V0 + 0,#`?<Constant "C">` & 0xff
        MOV     ?V0 + 1,#(`?<Constant "C">` >> 8) & 0xff
        MOV     R0,#?V0 + 0
        LCALL   ?PUSH_XSTACK_I_THREE
        CFI CFA_XSP16 add(XSP16, 29)
        MOV     R4,#0x1
        MOV     R5,#0x0
        MOV     R2,#(strTemp + 6) & 0xff
        MOV     R3,#((strTemp + 6) >> 8) & 0xff
        LCALL   ??Subroutine9_0 & 0xFFFF
??CrossCallReturnLabel_32:
        LCALL   ?DEALLOC_XSTACK8
        CFI CFA_XSP16 add(XSP16, 26)
//  418   HalLcdWriteString( strTemp, HAL_LCD_LINE_1 ); //液晶屏显示
        ; Setup parameters for call to function HalLcdWriteString
        MOV     R1,#0x1
        LCALL   ?Subroutine1 & 0xFFFF
//  419   osal_memset(strTemp, 0, 22 );
//  420   osal_memcpy(strTemp, "Hum:", 4);
??CrossCallReturnLabel_3:
        ; Setup parameters for call to function osal_memcpy
        MOV     ?V0 + 0,#`?<Constant "Hum:">` & 0xff
        MOV     ?V0 + 1,#(`?<Constant "Hum:">` >> 8) & 0xff
        MOV     R0,#?V0 + 0
        LCALL   ?PUSH_XSTACK_I_THREE
        CFI CFA_XSP16 add(XSP16, 29)
        LCALL   ?Subroutine6 & 0xFFFF
??CrossCallReturnLabel_17:
        LCALL   ?DEALLOC_XSTACK8
        CFI CFA_XSP16 add(XSP16, 26)
//  421   osal_memcpy(&strTemp[4], Humidity, 2); 
        ; Setup parameters for call to function osal_memcpy
        MOV     R0,#?V0 + 4
        LCALL   ?PUSH_XSTACK_I_THREE
        CFI CFA_XSP16 add(XSP16, 29)
        MOV     R4,#0x2
        MOV     R5,#0x0
        MOV     R2,#(strTemp + 4) & 0xff
        MOV     R3,#((strTemp + 4) >> 8) & 0xff
        LCALL   ??Subroutine9_0 & 0xFFFF
??CrossCallReturnLabel_33:
        LCALL   ?DEALLOC_XSTACK8
        CFI CFA_XSP16 add(XSP16, 26)
//  422   osal_memcpy(&strTemp[6], "%", 1); 
        ; Setup parameters for call to function osal_memcpy
        MOV     ?V0 + 0,#`?<Constant "%">` & 0xff
        MOV     ?V0 + 1,#(`?<Constant "%">` >> 8) & 0xff
        MOV     R0,#?V0 + 0
        LCALL   ?PUSH_XSTACK_I_THREE
        CFI CFA_XSP16 add(XSP16, 29)
        MOV     R4,#0x1
        MOV     R5,#0x0
        MOV     R2,#(strTemp + 6) & 0xff
        MOV     R3,#((strTemp + 6) >> 8) & 0xff
        LCALL   ??Subroutine9_0 & 0xFFFF
??CrossCallReturnLabel_34:
        LCALL   ?DEALLOC_XSTACK8
        CFI CFA_XSP16 add(XSP16, 26)
//  423   HalLcdWriteString( strTemp, HAL_LCD_LINE_2 ); //液晶屏显示
        ; Setup parameters for call to function HalLcdWriteString
        MOV     R1,#0x2
        LCALL   ?Subroutine1 & 0xFFFF
//  424   osal_memset(strTemp, 0, 22 );
//  425   osal_memcpy(strTemp, "Lig:", 4);
??CrossCallReturnLabel_4:
        ; Setup parameters for call to function osal_memcpy
        MOV     ?V0 + 0,#`?<Constant "Lig:">` & 0xff
        MOV     ?V0 + 1,#(`?<Constant "Lig:">` >> 8) & 0xff
        MOV     R0,#?V0 + 0
        LCALL   ?PUSH_XSTACK_I_THREE
        CFI CFA_XSP16 add(XSP16, 29)
        LCALL   ?Subroutine6 & 0xFFFF
??CrossCallReturnLabel_18:
        LCALL   ?DEALLOC_XSTACK8
        CFI CFA_XSP16 add(XSP16, 26)
//  426   osal_memcpy(&strTemp[4], light, 5); 
        ; Setup parameters for call to function osal_memcpy
        MOV     R0,#?V0 + 8
        LCALL   ?PUSH_XSTACK_I_THREE
        CFI CFA_XSP16 add(XSP16, 29)
        MOV     R4,#0x5
        MOV     R5,#0x0
        MOV     R2,#(strTemp + 4) & 0xff
        MOV     R3,#((strTemp + 4) >> 8) & 0xff
        LCALL   ??Subroutine9_0 & 0xFFFF
??CrossCallReturnLabel_35:
        LCALL   ?DEALLOC_XSTACK8
        CFI CFA_XSP16 add(XSP16, 26)
//  427   osal_memcpy(&strTemp[9], "Lux", 3); 
        ; Setup parameters for call to function osal_memcpy
        MOV     ?V0 + 0,#`?<Constant "Lux">` & 0xff
        MOV     ?V0 + 1,#(`?<Constant "Lux">` >> 8) & 0xff
        MOV     R0,#?V0 + 0
        LCALL   ?PUSH_XSTACK_I_THREE
        CFI CFA_XSP16 add(XSP16, 29)
        MOV     R4,#0x3
        MOV     R5,#0x0
        MOV     R2,#(strTemp + 9) & 0xff
        MOV     R3,#((strTemp + 9) >> 8) & 0xff
        LCALL   ??Subroutine9_0 & 0xFFFF
??CrossCallReturnLabel_36:
        LCALL   ?DEALLOC_XSTACK8
        CFI CFA_XSP16 add(XSP16, 26)
//  428   HalLcdWriteString( strTemp, HAL_LCD_LINE_3 ); //液晶屏显示
        ; Setup parameters for call to function HalLcdWriteString
        MOV     R1,#0x3
        LCALL   ?Subroutine1 & 0xFFFF
//  429   osal_memset(strTemp, 0, 22 );
//  430   osal_memcpy(strTemp, "CO2:", 4);
??CrossCallReturnLabel_5:
        ; Setup parameters for call to function osal_memcpy
        MOV     ?V0 + 0,#`?<Constant "CO2:">` & 0xff
        MOV     ?V0 + 1,#(`?<Constant "CO2:">` >> 8) & 0xff
        MOV     R0,#?V0 + 0
        LCALL   ?PUSH_XSTACK_I_THREE
        CFI CFA_XSP16 add(XSP16, 29)
        LCALL   ?Subroutine6 & 0xFFFF
??CrossCallReturnLabel_19:
        LCALL   ?DEALLOC_XSTACK8
        CFI CFA_XSP16 add(XSP16, 26)
//  431   osal_memcpy(&strTemp[4], volt, 5); 
        ; Setup parameters for call to function osal_memcpy
        MOV     DPL,?XSP + 0
        MOV     DPH,?XSP + 1
        LCALL   ?PUSH_XSTACK8_X_THREE
        CFI CFA_XSP16 add(XSP16, 29)
        MOV     R4,#0x5
        MOV     R5,#0x0
        MOV     R2,#(strTemp + 4) & 0xff
        MOV     R3,#((strTemp + 4) >> 8) & 0xff
        LCALL   ??Subroutine9_0 & 0xFFFF
??CrossCallReturnLabel_37:
        LCALL   ?DEALLOC_XSTACK8
        CFI CFA_XSP16 add(XSP16, 26)
//  432   osal_memcpy(&strTemp[9], "ppm", 3); 
        ; Setup parameters for call to function osal_memcpy
        MOV     ?V0 + 0,#`?<Constant "ppm">` & 0xff
        MOV     ?V0 + 1,#(`?<Constant "ppm">` >> 8) & 0xff
        MOV     R0,#?V0 + 0
        LCALL   ?PUSH_XSTACK_I_THREE
        CFI CFA_XSP16 add(XSP16, 29)
        MOV     R4,#0x3
        MOV     R5,#0x0
        MOV     R2,#(strTemp + 9) & 0xff
        MOV     R3,#((strTemp + 9) >> 8) & 0xff
        LCALL   ??Subroutine9_0 & 0xFFFF
??CrossCallReturnLabel_38:
        LCALL   ?DEALLOC_XSTACK8
        CFI CFA_XSP16 add(XSP16, 26)
//  433   HalLcdWriteString( strTemp, HAL_LCD_LINE_4 ); //液晶屏显示
        ; Setup parameters for call to function HalLcdWriteString
        MOV     R1,#0x4
        MOV     R2,#strTemp & 0xff
        MOV     R3,#(strTemp >> 8) & 0xff
        LCALL   ??HalLcdWriteString?relay
//  434  
//  435 }
        MOV     A,#0x3
        LCALL   ?DEALLOC_XSTACK8
        CFI CFA_XSP16 add(XSP16, 23)
        MOV     R7,#0xf
        LJMP    ?BANKED_LEAVE_XDATA
        CFI EndBlock cfiBlock11

        RSEG BANKED_CODE:CODE:NOROOT(0)
?Subroutine6:
        CFI Block cfiCond12 Using cfiCommon0
        CFI NoFunction
        CFI Conditional ??CrossCallReturnLabel_16
        CFI R6 load(1, XDATA, add(CFA_XSP16, literal(-23)))
        CFI VB load(1, XDATA, add(CFA_XSP16, literal(-22)))
        CFI V0 load(1, XDATA, add(CFA_XSP16, literal(-21)))
        CFI V1 load(1, XDATA, add(CFA_XSP16, literal(-20)))
        CFI V2 load(1, XDATA, add(CFA_XSP16, literal(-19)))
        CFI V3 load(1, XDATA, add(CFA_XSP16, literal(-18)))
        CFI V4 load(1, XDATA, add(CFA_XSP16, literal(-17)))
        CFI V5 load(1, XDATA, add(CFA_XSP16, literal(-16)))
        CFI V6 load(1, XDATA, add(CFA_XSP16, literal(-15)))
        CFI V7 load(1, XDATA, add(CFA_XSP16, literal(-14)))
        CFI V8 load(1, XDATA, add(CFA_XSP16, literal(-13)))
        CFI V9 load(1, XDATA, add(CFA_XSP16, literal(-12)))
        CFI V10 load(1, XDATA, add(CFA_XSP16, literal(-11)))
        CFI V11 load(1, XDATA, add(CFA_XSP16, literal(-10)))
        CFI V12 load(1, XDATA, add(CFA_XSP16, literal(-9)))
        CFI V13 load(1, XDATA, add(CFA_XSP16, literal(-8)))
        CFI V14 load(1, XDATA, add(CFA_XSP16, literal(-7)))
        CFI R7 load(1, XDATA, add(CFA_XSP16, literal(-6)))
        CFI ?RET_LOW load(1, XDATA, add(CFA_XSP16, literal(-5)))
        CFI ?RET_HIGH load(1, XDATA, add(CFA_XSP16, literal(-4)))
        CFI ?BRET_EXT load(1, XDATA, add(CFA_XSP16, literal(-3)))
        CFI DPL0 load(1, XDATA, add(CFA_XSP16, literal(-2)))
        CFI DPH0 load(1, XDATA, add(CFA_XSP16, literal(-1)))
        CFI CFA_SP SP+0
        CFI CFA_XSP16 add(XSP16, 29)
        CFI Block cfiCond13 Using cfiCommon0
        CFI (cfiCond13) NoFunction
        CFI (cfiCond13) Conditional ??CrossCallReturnLabel_17
        CFI (cfiCond13) R6 load(1, XDATA, add(CFA_XSP16, literal(-23)))
        CFI (cfiCond13) VB load(1, XDATA, add(CFA_XSP16, literal(-22)))
        CFI (cfiCond13) V0 load(1, XDATA, add(CFA_XSP16, literal(-21)))
        CFI (cfiCond13) V1 load(1, XDATA, add(CFA_XSP16, literal(-20)))
        CFI (cfiCond13) V2 load(1, XDATA, add(CFA_XSP16, literal(-19)))
        CFI (cfiCond13) V3 load(1, XDATA, add(CFA_XSP16, literal(-18)))
        CFI (cfiCond13) V4 load(1, XDATA, add(CFA_XSP16, literal(-17)))
        CFI (cfiCond13) V5 load(1, XDATA, add(CFA_XSP16, literal(-16)))
        CFI (cfiCond13) V6 load(1, XDATA, add(CFA_XSP16, literal(-15)))
        CFI (cfiCond13) V7 load(1, XDATA, add(CFA_XSP16, literal(-14)))
        CFI (cfiCond13) V8 load(1, XDATA, add(CFA_XSP16, literal(-13)))
        CFI (cfiCond13) V9 load(1, XDATA, add(CFA_XSP16, literal(-12)))
        CFI (cfiCond13) V10 load(1, XDATA, add(CFA_XSP16, literal(-11)))
        CFI (cfiCond13) V11 load(1, XDATA, add(CFA_XSP16, literal(-10)))
        CFI (cfiCond13) V12 load(1, XDATA, add(CFA_XSP16, literal(-9)))
        CFI (cfiCond13) V13 load(1, XDATA, add(CFA_XSP16, literal(-8)))
        CFI (cfiCond13) V14 load(1, XDATA, add(CFA_XSP16, literal(-7)))
        CFI (cfiCond13) R7 load(1, XDATA, add(CFA_XSP16, literal(-6)))
        CFI (cfiCond13) ?RET_LOW load(1, XDATA, add(CFA_XSP16, literal(-5)))
        CFI (cfiCond13) ?RET_HIGH load(1, XDATA, add(CFA_XSP16, literal(-4)))
        CFI (cfiCond13) ?BRET_EXT load(1, XDATA, add(CFA_XSP16, literal(-3)))
        CFI (cfiCond13) DPL0 load(1, XDATA, add(CFA_XSP16, literal(-2)))
        CFI (cfiCond13) DPH0 load(1, XDATA, add(CFA_XSP16, literal(-1)))
        CFI (cfiCond13) CFA_SP SP+0
        CFI (cfiCond13) CFA_XSP16 add(XSP16, 29)
        CFI Block cfiCond14 Using cfiCommon0
        CFI (cfiCond14) NoFunction
        CFI (cfiCond14) Conditional ??CrossCallReturnLabel_18
        CFI (cfiCond14) R6 load(1, XDATA, add(CFA_XSP16, literal(-23)))
        CFI (cfiCond14) VB load(1, XDATA, add(CFA_XSP16, literal(-22)))
        CFI (cfiCond14) V0 load(1, XDATA, add(CFA_XSP16, literal(-21)))
        CFI (cfiCond14) V1 load(1, XDATA, add(CFA_XSP16, literal(-20)))
        CFI (cfiCond14) V2 load(1, XDATA, add(CFA_XSP16, literal(-19)))
        CFI (cfiCond14) V3 load(1, XDATA, add(CFA_XSP16, literal(-18)))
        CFI (cfiCond14) V4 load(1, XDATA, add(CFA_XSP16, literal(-17)))
        CFI (cfiCond14) V5 load(1, XDATA, add(CFA_XSP16, literal(-16)))
        CFI (cfiCond14) V6 load(1, XDATA, add(CFA_XSP16, literal(-15)))
        CFI (cfiCond14) V7 load(1, XDATA, add(CFA_XSP16, literal(-14)))
        CFI (cfiCond14) V8 load(1, XDATA, add(CFA_XSP16, literal(-13)))
        CFI (cfiCond14) V9 load(1, XDATA, add(CFA_XSP16, literal(-12)))
        CFI (cfiCond14) V10 load(1, XDATA, add(CFA_XSP16, literal(-11)))
        CFI (cfiCond14) V11 load(1, XDATA, add(CFA_XSP16, literal(-10)))
        CFI (cfiCond14) V12 load(1, XDATA, add(CFA_XSP16, literal(-9)))
        CFI (cfiCond14) V13 load(1, XDATA, add(CFA_XSP16, literal(-8)))
        CFI (cfiCond14) V14 load(1, XDATA, add(CFA_XSP16, literal(-7)))
        CFI (cfiCond14) R7 load(1, XDATA, add(CFA_XSP16, literal(-6)))
        CFI (cfiCond14) ?RET_LOW load(1, XDATA, add(CFA_XSP16, literal(-5)))
        CFI (cfiCond14) ?RET_HIGH load(1, XDATA, add(CFA_XSP16, literal(-4)))
        CFI (cfiCond14) ?BRET_EXT load(1, XDATA, add(CFA_XSP16, literal(-3)))
        CFI (cfiCond14) DPL0 load(1, XDATA, add(CFA_XSP16, literal(-2)))
        CFI (cfiCond14) DPH0 load(1, XDATA, add(CFA_XSP16, literal(-1)))
        CFI (cfiCond14) CFA_SP SP+0
        CFI (cfiCond14) CFA_XSP16 add(XSP16, 29)
        CFI Block cfiCond15 Using cfiCommon0
        CFI (cfiCond15) NoFunction
        CFI (cfiCond15) Conditional ??CrossCallReturnLabel_19
        CFI (cfiCond15) R6 load(1, XDATA, add(CFA_XSP16, literal(-23)))
        CFI (cfiCond15) VB load(1, XDATA, add(CFA_XSP16, literal(-22)))
        CFI (cfiCond15) V0 load(1, XDATA, add(CFA_XSP16, literal(-21)))
        CFI (cfiCond15) V1 load(1, XDATA, add(CFA_XSP16, literal(-20)))
        CFI (cfiCond15) V2 load(1, XDATA, add(CFA_XSP16, literal(-19)))
        CFI (cfiCond15) V3 load(1, XDATA, add(CFA_XSP16, literal(-18)))
        CFI (cfiCond15) V4 load(1, XDATA, add(CFA_XSP16, literal(-17)))
        CFI (cfiCond15) V5 load(1, XDATA, add(CFA_XSP16, literal(-16)))
        CFI (cfiCond15) V6 load(1, XDATA, add(CFA_XSP16, literal(-15)))
        CFI (cfiCond15) V7 load(1, XDATA, add(CFA_XSP16, literal(-14)))
        CFI (cfiCond15) V8 load(1, XDATA, add(CFA_XSP16, literal(-13)))
        CFI (cfiCond15) V9 load(1, XDATA, add(CFA_XSP16, literal(-12)))
        CFI (cfiCond15) V10 load(1, XDATA, add(CFA_XSP16, literal(-11)))
        CFI (cfiCond15) V11 load(1, XDATA, add(CFA_XSP16, literal(-10)))
        CFI (cfiCond15) V12 load(1, XDATA, add(CFA_XSP16, literal(-9)))
        CFI (cfiCond15) V13 load(1, XDATA, add(CFA_XSP16, literal(-8)))
        CFI (cfiCond15) V14 load(1, XDATA, add(CFA_XSP16, literal(-7)))
        CFI (cfiCond15) R7 load(1, XDATA, add(CFA_XSP16, literal(-6)))
        CFI (cfiCond15) ?RET_LOW load(1, XDATA, add(CFA_XSP16, literal(-5)))
        CFI (cfiCond15) ?RET_HIGH load(1, XDATA, add(CFA_XSP16, literal(-4)))
        CFI (cfiCond15) ?BRET_EXT load(1, XDATA, add(CFA_XSP16, literal(-3)))
        CFI (cfiCond15) DPL0 load(1, XDATA, add(CFA_XSP16, literal(-2)))
        CFI (cfiCond15) DPH0 load(1, XDATA, add(CFA_XSP16, literal(-1)))
        CFI (cfiCond15) CFA_SP SP+0
        CFI (cfiCond15) CFA_XSP16 add(XSP16, 29)
        CFI Block cfiPicker16 Using cfiCommon1
        CFI (cfiPicker16) NoFunction
        CFI (cfiPicker16) Picker
        MOV     R4,#0x4
        CFI EndBlock cfiCond12
        CFI EndBlock cfiCond13
        CFI EndBlock cfiCond14
        CFI EndBlock cfiCond15
        CFI EndBlock cfiPicker16
        REQUIRE ??Subroutine8_0
        ; // Fall through to label ??Subroutine8_0

        RSEG BANKED_CODE:CODE:NOROOT(0)
??Subroutine8_0:
        CFI Block cfiCond17 Using cfiCommon0
        CFI NoFunction
        CFI Conditional ??CrossCallReturnLabel_20
        CFI R6 load(1, XDATA, add(CFA_XSP16, literal(-23)))
        CFI VB load(1, XDATA, add(CFA_XSP16, literal(-22)))
        CFI V0 load(1, XDATA, add(CFA_XSP16, literal(-21)))
        CFI V1 load(1, XDATA, add(CFA_XSP16, literal(-20)))
        CFI V2 load(1, XDATA, add(CFA_XSP16, literal(-19)))
        CFI V3 load(1, XDATA, add(CFA_XSP16, literal(-18)))
        CFI V4 load(1, XDATA, add(CFA_XSP16, literal(-17)))
        CFI V5 load(1, XDATA, add(CFA_XSP16, literal(-16)))
        CFI V6 load(1, XDATA, add(CFA_XSP16, literal(-15)))
        CFI V7 load(1, XDATA, add(CFA_XSP16, literal(-14)))
        CFI V8 load(1, XDATA, add(CFA_XSP16, literal(-13)))
        CFI V9 load(1, XDATA, add(CFA_XSP16, literal(-12)))
        CFI V10 load(1, XDATA, add(CFA_XSP16, literal(-11)))
        CFI V11 load(1, XDATA, add(CFA_XSP16, literal(-10)))
        CFI V12 load(1, XDATA, add(CFA_XSP16, literal(-9)))
        CFI V13 load(1, XDATA, add(CFA_XSP16, literal(-8)))
        CFI V14 load(1, XDATA, add(CFA_XSP16, literal(-7)))
        CFI R7 load(1, XDATA, add(CFA_XSP16, literal(-6)))
        CFI ?RET_LOW load(1, XDATA, add(CFA_XSP16, literal(-5)))
        CFI ?RET_HIGH load(1, XDATA, add(CFA_XSP16, literal(-4)))
        CFI ?BRET_EXT load(1, XDATA, add(CFA_XSP16, literal(-3)))
        CFI DPL0 load(1, XDATA, add(CFA_XSP16, literal(-2)))
        CFI DPH0 load(1, XDATA, add(CFA_XSP16, literal(-1)))
        CFI CFA_SP SP+0
        CFI CFA_XSP16 add(XSP16, 29)
        CFI Block cfiCond18 Using cfiCommon0
        CFI (cfiCond18) NoFunction
        CFI (cfiCond18) Conditional ??CrossCallReturnLabel_16
        CFI (cfiCond18) R6 load(1, XDATA, add(CFA_XSP16, literal(-23)))
        CFI (cfiCond18) VB load(1, XDATA, add(CFA_XSP16, literal(-22)))
        CFI (cfiCond18) V0 load(1, XDATA, add(CFA_XSP16, literal(-21)))
        CFI (cfiCond18) V1 load(1, XDATA, add(CFA_XSP16, literal(-20)))
        CFI (cfiCond18) V2 load(1, XDATA, add(CFA_XSP16, literal(-19)))
        CFI (cfiCond18) V3 load(1, XDATA, add(CFA_XSP16, literal(-18)))
        CFI (cfiCond18) V4 load(1, XDATA, add(CFA_XSP16, literal(-17)))
        CFI (cfiCond18) V5 load(1, XDATA, add(CFA_XSP16, literal(-16)))
        CFI (cfiCond18) V6 load(1, XDATA, add(CFA_XSP16, literal(-15)))
        CFI (cfiCond18) V7 load(1, XDATA, add(CFA_XSP16, literal(-14)))
        CFI (cfiCond18) V8 load(1, XDATA, add(CFA_XSP16, literal(-13)))
        CFI (cfiCond18) V9 load(1, XDATA, add(CFA_XSP16, literal(-12)))
        CFI (cfiCond18) V10 load(1, XDATA, add(CFA_XSP16, literal(-11)))
        CFI (cfiCond18) V11 load(1, XDATA, add(CFA_XSP16, literal(-10)))
        CFI (cfiCond18) V12 load(1, XDATA, add(CFA_XSP16, literal(-9)))
        CFI (cfiCond18) V13 load(1, XDATA, add(CFA_XSP16, literal(-8)))
        CFI (cfiCond18) V14 load(1, XDATA, add(CFA_XSP16, literal(-7)))
        CFI (cfiCond18) R7 load(1, XDATA, add(CFA_XSP16, literal(-6)))
        CFI (cfiCond18) ?RET_LOW load(1, XDATA, add(CFA_XSP16, literal(-5)))
        CFI (cfiCond18) ?RET_HIGH load(1, XDATA, add(CFA_XSP16, literal(-4)))
        CFI (cfiCond18) ?BRET_EXT load(1, XDATA, add(CFA_XSP16, literal(-3)))
        CFI (cfiCond18) DPL0 load(1, XDATA, add(CFA_XSP16, literal(-2)))
        CFI (cfiCond18) DPH0 load(1, XDATA, add(CFA_XSP16, literal(-1)))
        CFI (cfiCond18) CFA_SP SP+0
        CFI (cfiCond18) CFA_XSP16 add(XSP16, 29)
        CFI Block cfiCond19 Using cfiCommon0
        CFI (cfiCond19) NoFunction
        CFI (cfiCond19) Conditional ??CrossCallReturnLabel_17
        CFI (cfiCond19) R6 load(1, XDATA, add(CFA_XSP16, literal(-23)))
        CFI (cfiCond19) VB load(1, XDATA, add(CFA_XSP16, literal(-22)))
        CFI (cfiCond19) V0 load(1, XDATA, add(CFA_XSP16, literal(-21)))
        CFI (cfiCond19) V1 load(1, XDATA, add(CFA_XSP16, literal(-20)))
        CFI (cfiCond19) V2 load(1, XDATA, add(CFA_XSP16, literal(-19)))
        CFI (cfiCond19) V3 load(1, XDATA, add(CFA_XSP16, literal(-18)))
        CFI (cfiCond19) V4 load(1, XDATA, add(CFA_XSP16, literal(-17)))
        CFI (cfiCond19) V5 load(1, XDATA, add(CFA_XSP16, literal(-16)))
        CFI (cfiCond19) V6 load(1, XDATA, add(CFA_XSP16, literal(-15)))
        CFI (cfiCond19) V7 load(1, XDATA, add(CFA_XSP16, literal(-14)))
        CFI (cfiCond19) V8 load(1, XDATA, add(CFA_XSP16, literal(-13)))
        CFI (cfiCond19) V9 load(1, XDATA, add(CFA_XSP16, literal(-12)))
        CFI (cfiCond19) V10 load(1, XDATA, add(CFA_XSP16, literal(-11)))
        CFI (cfiCond19) V11 load(1, XDATA, add(CFA_XSP16, literal(-10)))
        CFI (cfiCond19) V12 load(1, XDATA, add(CFA_XSP16, literal(-9)))
        CFI (cfiCond19) V13 load(1, XDATA, add(CFA_XSP16, literal(-8)))
        CFI (cfiCond19) V14 load(1, XDATA, add(CFA_XSP16, literal(-7)))
        CFI (cfiCond19) R7 load(1, XDATA, add(CFA_XSP16, literal(-6)))
        CFI (cfiCond19) ?RET_LOW load(1, XDATA, add(CFA_XSP16, literal(-5)))
        CFI (cfiCond19) ?RET_HIGH load(1, XDATA, add(CFA_XSP16, literal(-4)))
        CFI (cfiCond19) ?BRET_EXT load(1, XDATA, add(CFA_XSP16, literal(-3)))
        CFI (cfiCond19) DPL0 load(1, XDATA, add(CFA_XSP16, literal(-2)))
        CFI (cfiCond19) DPH0 load(1, XDATA, add(CFA_XSP16, literal(-1)))
        CFI (cfiCond19) CFA_SP SP+0
        CFI (cfiCond19) CFA_XSP16 add(XSP16, 29)
        CFI Block cfiCond20 Using cfiCommon0
        CFI (cfiCond20) NoFunction
        CFI (cfiCond20) Conditional ??CrossCallReturnLabel_18
        CFI (cfiCond20) R6 load(1, XDATA, add(CFA_XSP16, literal(-23)))
        CFI (cfiCond20) VB load(1, XDATA, add(CFA_XSP16, literal(-22)))
        CFI (cfiCond20) V0 load(1, XDATA, add(CFA_XSP16, literal(-21)))
        CFI (cfiCond20) V1 load(1, XDATA, add(CFA_XSP16, literal(-20)))
        CFI (cfiCond20) V2 load(1, XDATA, add(CFA_XSP16, literal(-19)))
        CFI (cfiCond20) V3 load(1, XDATA, add(CFA_XSP16, literal(-18)))
        CFI (cfiCond20) V4 load(1, XDATA, add(CFA_XSP16, literal(-17)))
        CFI (cfiCond20) V5 load(1, XDATA, add(CFA_XSP16, literal(-16)))
        CFI (cfiCond20) V6 load(1, XDATA, add(CFA_XSP16, literal(-15)))
        CFI (cfiCond20) V7 load(1, XDATA, add(CFA_XSP16, literal(-14)))
        CFI (cfiCond20) V8 load(1, XDATA, add(CFA_XSP16, literal(-13)))
        CFI (cfiCond20) V9 load(1, XDATA, add(CFA_XSP16, literal(-12)))
        CFI (cfiCond20) V10 load(1, XDATA, add(CFA_XSP16, literal(-11)))
        CFI (cfiCond20) V11 load(1, XDATA, add(CFA_XSP16, literal(-10)))
        CFI (cfiCond20) V12 load(1, XDATA, add(CFA_XSP16, literal(-9)))
        CFI (cfiCond20) V13 load(1, XDATA, add(CFA_XSP16, literal(-8)))
        CFI (cfiCond20) V14 load(1, XDATA, add(CFA_XSP16, literal(-7)))
        CFI (cfiCond20) R7 load(1, XDATA, add(CFA_XSP16, literal(-6)))
        CFI (cfiCond20) ?RET_LOW load(1, XDATA, add(CFA_XSP16, literal(-5)))
        CFI (cfiCond20) ?RET_HIGH load(1, XDATA, add(CFA_XSP16, literal(-4)))
        CFI (cfiCond20) ?BRET_EXT load(1, XDATA, add(CFA_XSP16, literal(-3)))
        CFI (cfiCond20) DPL0 load(1, XDATA, add(CFA_XSP16, literal(-2)))
        CFI (cfiCond20) DPH0 load(1, XDATA, add(CFA_XSP16, literal(-1)))
        CFI (cfiCond20) CFA_SP SP+0
        CFI (cfiCond20) CFA_XSP16 add(XSP16, 29)
        CFI Block cfiCond21 Using cfiCommon0
        CFI (cfiCond21) NoFunction
        CFI (cfiCond21) Conditional ??CrossCallReturnLabel_19
        CFI (cfiCond21) R6 load(1, XDATA, add(CFA_XSP16, literal(-23)))
        CFI (cfiCond21) VB load(1, XDATA, add(CFA_XSP16, literal(-22)))
        CFI (cfiCond21) V0 load(1, XDATA, add(CFA_XSP16, literal(-21)))
        CFI (cfiCond21) V1 load(1, XDATA, add(CFA_XSP16, literal(-20)))
        CFI (cfiCond21) V2 load(1, XDATA, add(CFA_XSP16, literal(-19)))
        CFI (cfiCond21) V3 load(1, XDATA, add(CFA_XSP16, literal(-18)))
        CFI (cfiCond21) V4 load(1, XDATA, add(CFA_XSP16, literal(-17)))
        CFI (cfiCond21) V5 load(1, XDATA, add(CFA_XSP16, literal(-16)))
        CFI (cfiCond21) V6 load(1, XDATA, add(CFA_XSP16, literal(-15)))
        CFI (cfiCond21) V7 load(1, XDATA, add(CFA_XSP16, literal(-14)))
        CFI (cfiCond21) V8 load(1, XDATA, add(CFA_XSP16, literal(-13)))
        CFI (cfiCond21) V9 load(1, XDATA, add(CFA_XSP16, literal(-12)))
        CFI (cfiCond21) V10 load(1, XDATA, add(CFA_XSP16, literal(-11)))
        CFI (cfiCond21) V11 load(1, XDATA, add(CFA_XSP16, literal(-10)))
        CFI (cfiCond21) V12 load(1, XDATA, add(CFA_XSP16, literal(-9)))
        CFI (cfiCond21) V13 load(1, XDATA, add(CFA_XSP16, literal(-8)))
        CFI (cfiCond21) V14 load(1, XDATA, add(CFA_XSP16, literal(-7)))
        CFI (cfiCond21) R7 load(1, XDATA, add(CFA_XSP16, literal(-6)))
        CFI (cfiCond21) ?RET_LOW load(1, XDATA, add(CFA_XSP16, literal(-5)))
        CFI (cfiCond21) ?RET_HIGH load(1, XDATA, add(CFA_XSP16, literal(-4)))
        CFI (cfiCond21) ?BRET_EXT load(1, XDATA, add(CFA_XSP16, literal(-3)))
        CFI (cfiCond21) DPL0 load(1, XDATA, add(CFA_XSP16, literal(-2)))
        CFI (cfiCond21) DPH0 load(1, XDATA, add(CFA_XSP16, literal(-1)))
        CFI (cfiCond21) CFA_SP SP+0
        CFI (cfiCond21) CFA_XSP16 add(XSP16, 29)
        CFI Block cfiPicker22 Using cfiCommon1
        CFI (cfiPicker22) NoFunction
        CFI (cfiPicker22) Picker
        MOV     R5,#0x0
        MOV     R2,#strTemp & 0xff
        MOV     R3,#(strTemp >> 8) & 0xff
        CFI EndBlock cfiCond17
        CFI EndBlock cfiCond18
        CFI EndBlock cfiCond19
        CFI EndBlock cfiCond20
        CFI EndBlock cfiCond21
        CFI EndBlock cfiPicker22
        REQUIRE ??Subroutine9_0
        ; // Fall through to label ??Subroutine9_0

        RSEG BANKED_CODE:CODE:NOROOT(0)
??Subroutine9_0:
        CFI Block cfiCond23 Using cfiCommon0
        CFI NoFunction
        CFI Conditional ??CrossCallReturnLabel_21
        CFI R6 load(1, XDATA, add(CFA_XSP16, literal(-23)))
        CFI VB load(1, XDATA, add(CFA_XSP16, literal(-22)))
        CFI V0 load(1, XDATA, add(CFA_XSP16, literal(-21)))
        CFI V1 load(1, XDATA, add(CFA_XSP16, literal(-20)))
        CFI V2 load(1, XDATA, add(CFA_XSP16, literal(-19)))
        CFI V3 load(1, XDATA, add(CFA_XSP16, literal(-18)))
        CFI V4 load(1, XDATA, add(CFA_XSP16, literal(-17)))
        CFI V5 load(1, XDATA, add(CFA_XSP16, literal(-16)))
        CFI V6 load(1, XDATA, add(CFA_XSP16, literal(-15)))
        CFI V7 load(1, XDATA, add(CFA_XSP16, literal(-14)))
        CFI V8 load(1, XDATA, add(CFA_XSP16, literal(-13)))
        CFI V9 load(1, XDATA, add(CFA_XSP16, literal(-12)))
        CFI V10 load(1, XDATA, add(CFA_XSP16, literal(-11)))
        CFI V11 load(1, XDATA, add(CFA_XSP16, literal(-10)))
        CFI V12 load(1, XDATA, add(CFA_XSP16, literal(-9)))
        CFI V13 load(1, XDATA, add(CFA_XSP16, literal(-8)))
        CFI V14 load(1, XDATA, add(CFA_XSP16, literal(-7)))
        CFI R7 load(1, XDATA, add(CFA_XSP16, literal(-6)))
        CFI ?RET_LOW load(1, XDATA, add(CFA_XSP16, literal(-5)))
        CFI ?RET_HIGH load(1, XDATA, add(CFA_XSP16, literal(-4)))
        CFI ?BRET_EXT load(1, XDATA, add(CFA_XSP16, literal(-3)))
        CFI DPL0 load(1, XDATA, add(CFA_XSP16, literal(-2)))
        CFI DPH0 load(1, XDATA, add(CFA_XSP16, literal(-1)))
        CFI CFA_SP SP+0
        CFI CFA_XSP16 add(XSP16, 29)
        CFI Block cfiCond24 Using cfiCommon0
        CFI (cfiCond24) NoFunction
        CFI (cfiCond24) Conditional ??CrossCallReturnLabel_22
        CFI (cfiCond24) R6 load(1, XDATA, add(CFA_XSP16, literal(-23)))
        CFI (cfiCond24) VB load(1, XDATA, add(CFA_XSP16, literal(-22)))
        CFI (cfiCond24) V0 load(1, XDATA, add(CFA_XSP16, literal(-21)))
        CFI (cfiCond24) V1 load(1, XDATA, add(CFA_XSP16, literal(-20)))
        CFI (cfiCond24) V2 load(1, XDATA, add(CFA_XSP16, literal(-19)))
        CFI (cfiCond24) V3 load(1, XDATA, add(CFA_XSP16, literal(-18)))
        CFI (cfiCond24) V4 load(1, XDATA, add(CFA_XSP16, literal(-17)))
        CFI (cfiCond24) V5 load(1, XDATA, add(CFA_XSP16, literal(-16)))
        CFI (cfiCond24) V6 load(1, XDATA, add(CFA_XSP16, literal(-15)))
        CFI (cfiCond24) V7 load(1, XDATA, add(CFA_XSP16, literal(-14)))
        CFI (cfiCond24) V8 load(1, XDATA, add(CFA_XSP16, literal(-13)))
        CFI (cfiCond24) V9 load(1, XDATA, add(CFA_XSP16, literal(-12)))
        CFI (cfiCond24) V10 load(1, XDATA, add(CFA_XSP16, literal(-11)))
        CFI (cfiCond24) V11 load(1, XDATA, add(CFA_XSP16, literal(-10)))
        CFI (cfiCond24) V12 load(1, XDATA, add(CFA_XSP16, literal(-9)))
        CFI (cfiCond24) V13 load(1, XDATA, add(CFA_XSP16, literal(-8)))
        CFI (cfiCond24) V14 load(1, XDATA, add(CFA_XSP16, literal(-7)))
        CFI (cfiCond24) R7 load(1, XDATA, add(CFA_XSP16, literal(-6)))
        CFI (cfiCond24) ?RET_LOW load(1, XDATA, add(CFA_XSP16, literal(-5)))
        CFI (cfiCond24) ?RET_HIGH load(1, XDATA, add(CFA_XSP16, literal(-4)))
        CFI (cfiCond24) ?BRET_EXT load(1, XDATA, add(CFA_XSP16, literal(-3)))
        CFI (cfiCond24) DPL0 load(1, XDATA, add(CFA_XSP16, literal(-2)))
        CFI (cfiCond24) DPH0 load(1, XDATA, add(CFA_XSP16, literal(-1)))
        CFI (cfiCond24) CFA_SP SP+0
        CFI (cfiCond24) CFA_XSP16 add(XSP16, 29)
        CFI Block cfiCond25 Using cfiCommon0
        CFI (cfiCond25) NoFunction
        CFI (cfiCond25) Conditional ??CrossCallReturnLabel_23
        CFI (cfiCond25) R6 load(1, XDATA, add(CFA_XSP16, literal(-23)))
        CFI (cfiCond25) VB load(1, XDATA, add(CFA_XSP16, literal(-22)))
        CFI (cfiCond25) V0 load(1, XDATA, add(CFA_XSP16, literal(-21)))
        CFI (cfiCond25) V1 load(1, XDATA, add(CFA_XSP16, literal(-20)))
        CFI (cfiCond25) V2 load(1, XDATA, add(CFA_XSP16, literal(-19)))
        CFI (cfiCond25) V3 load(1, XDATA, add(CFA_XSP16, literal(-18)))
        CFI (cfiCond25) V4 load(1, XDATA, add(CFA_XSP16, literal(-17)))
        CFI (cfiCond25) V5 load(1, XDATA, add(CFA_XSP16, literal(-16)))
        CFI (cfiCond25) V6 load(1, XDATA, add(CFA_XSP16, literal(-15)))
        CFI (cfiCond25) V7 load(1, XDATA, add(CFA_XSP16, literal(-14)))
        CFI (cfiCond25) V8 load(1, XDATA, add(CFA_XSP16, literal(-13)))
        CFI (cfiCond25) V9 load(1, XDATA, add(CFA_XSP16, literal(-12)))
        CFI (cfiCond25) V10 load(1, XDATA, add(CFA_XSP16, literal(-11)))
        CFI (cfiCond25) V11 load(1, XDATA, add(CFA_XSP16, literal(-10)))
        CFI (cfiCond25) V12 load(1, XDATA, add(CFA_XSP16, literal(-9)))
        CFI (cfiCond25) V13 load(1, XDATA, add(CFA_XSP16, literal(-8)))
        CFI (cfiCond25) V14 load(1, XDATA, add(CFA_XSP16, literal(-7)))
        CFI (cfiCond25) R7 load(1, XDATA, add(CFA_XSP16, literal(-6)))
        CFI (cfiCond25) ?RET_LOW load(1, XDATA, add(CFA_XSP16, literal(-5)))
        CFI (cfiCond25) ?RET_HIGH load(1, XDATA, add(CFA_XSP16, literal(-4)))
        CFI (cfiCond25) ?BRET_EXT load(1, XDATA, add(CFA_XSP16, literal(-3)))
        CFI (cfiCond25) DPL0 load(1, XDATA, add(CFA_XSP16, literal(-2)))
        CFI (cfiCond25) DPH0 load(1, XDATA, add(CFA_XSP16, literal(-1)))
        CFI (cfiCond25) CFA_SP SP+0
        CFI (cfiCond25) CFA_XSP16 add(XSP16, 29)
        CFI Block cfiCond26 Using cfiCommon0
        CFI (cfiCond26) NoFunction
        CFI (cfiCond26) Conditional ??CrossCallReturnLabel_24
        CFI (cfiCond26) R6 load(1, XDATA, add(CFA_XSP16, literal(-23)))
        CFI (cfiCond26) VB load(1, XDATA, add(CFA_XSP16, literal(-22)))
        CFI (cfiCond26) V0 load(1, XDATA, add(CFA_XSP16, literal(-21)))
        CFI (cfiCond26) V1 load(1, XDATA, add(CFA_XSP16, literal(-20)))
        CFI (cfiCond26) V2 load(1, XDATA, add(CFA_XSP16, literal(-19)))
        CFI (cfiCond26) V3 load(1, XDATA, add(CFA_XSP16, literal(-18)))
        CFI (cfiCond26) V4 load(1, XDATA, add(CFA_XSP16, literal(-17)))
        CFI (cfiCond26) V5 load(1, XDATA, add(CFA_XSP16, literal(-16)))
        CFI (cfiCond26) V6 load(1, XDATA, add(CFA_XSP16, literal(-15)))
        CFI (cfiCond26) V7 load(1, XDATA, add(CFA_XSP16, literal(-14)))
        CFI (cfiCond26) V8 load(1, XDATA, add(CFA_XSP16, literal(-13)))
        CFI (cfiCond26) V9 load(1, XDATA, add(CFA_XSP16, literal(-12)))
        CFI (cfiCond26) V10 load(1, XDATA, add(CFA_XSP16, literal(-11)))
        CFI (cfiCond26) V11 load(1, XDATA, add(CFA_XSP16, literal(-10)))
        CFI (cfiCond26) V12 load(1, XDATA, add(CFA_XSP16, literal(-9)))
        CFI (cfiCond26) V13 load(1, XDATA, add(CFA_XSP16, literal(-8)))
        CFI (cfiCond26) V14 load(1, XDATA, add(CFA_XSP16, literal(-7)))
        CFI (cfiCond26) R7 load(1, XDATA, add(CFA_XSP16, literal(-6)))
        CFI (cfiCond26) ?RET_LOW load(1, XDATA, add(CFA_XSP16, literal(-5)))
        CFI (cfiCond26) ?RET_HIGH load(1, XDATA, add(CFA_XSP16, literal(-4)))
        CFI (cfiCond26) ?BRET_EXT load(1, XDATA, add(CFA_XSP16, literal(-3)))
        CFI (cfiCond26) DPL0 load(1, XDATA, add(CFA_XSP16, literal(-2)))
        CFI (cfiCond26) DPH0 load(1, XDATA, add(CFA_XSP16, literal(-1)))
        CFI (cfiCond26) CFA_SP SP+0
        CFI (cfiCond26) CFA_XSP16 add(XSP16, 29)
        CFI Block cfiCond27 Using cfiCommon0
        CFI (cfiCond27) NoFunction
        CFI (cfiCond27) Conditional ??CrossCallReturnLabel_25
        CFI (cfiCond27) R6 load(1, XDATA, add(CFA_XSP16, literal(-23)))
        CFI (cfiCond27) VB load(1, XDATA, add(CFA_XSP16, literal(-22)))
        CFI (cfiCond27) V0 load(1, XDATA, add(CFA_XSP16, literal(-21)))
        CFI (cfiCond27) V1 load(1, XDATA, add(CFA_XSP16, literal(-20)))
        CFI (cfiCond27) V2 load(1, XDATA, add(CFA_XSP16, literal(-19)))
        CFI (cfiCond27) V3 load(1, XDATA, add(CFA_XSP16, literal(-18)))
        CFI (cfiCond27) V4 load(1, XDATA, add(CFA_XSP16, literal(-17)))
        CFI (cfiCond27) V5 load(1, XDATA, add(CFA_XSP16, literal(-16)))
        CFI (cfiCond27) V6 load(1, XDATA, add(CFA_XSP16, literal(-15)))
        CFI (cfiCond27) V7 load(1, XDATA, add(CFA_XSP16, literal(-14)))
        CFI (cfiCond27) V8 load(1, XDATA, add(CFA_XSP16, literal(-13)))
        CFI (cfiCond27) V9 load(1, XDATA, add(CFA_XSP16, literal(-12)))
        CFI (cfiCond27) V10 load(1, XDATA, add(CFA_XSP16, literal(-11)))
        CFI (cfiCond27) V11 load(1, XDATA, add(CFA_XSP16, literal(-10)))
        CFI (cfiCond27) V12 load(1, XDATA, add(CFA_XSP16, literal(-9)))
        CFI (cfiCond27) V13 load(1, XDATA, add(CFA_XSP16, literal(-8)))
        CFI (cfiCond27) V14 load(1, XDATA, add(CFA_XSP16, literal(-7)))
        CFI (cfiCond27) R7 load(1, XDATA, add(CFA_XSP16, literal(-6)))
        CFI (cfiCond27) ?RET_LOW load(1, XDATA, add(CFA_XSP16, literal(-5)))
        CFI (cfiCond27) ?RET_HIGH load(1, XDATA, add(CFA_XSP16, literal(-4)))
        CFI (cfiCond27) ?BRET_EXT load(1, XDATA, add(CFA_XSP16, literal(-3)))
        CFI (cfiCond27) DPL0 load(1, XDATA, add(CFA_XSP16, literal(-2)))
        CFI (cfiCond27) DPH0 load(1, XDATA, add(CFA_XSP16, literal(-1)))
        CFI (cfiCond27) CFA_SP SP+0
        CFI (cfiCond27) CFA_XSP16 add(XSP16, 29)
        CFI Block cfiCond28 Using cfiCommon0
        CFI (cfiCond28) NoFunction
        CFI (cfiCond28) Conditional ??CrossCallReturnLabel_26
        CFI (cfiCond28) R6 load(1, XDATA, add(CFA_XSP16, literal(-23)))
        CFI (cfiCond28) VB load(1, XDATA, add(CFA_XSP16, literal(-22)))
        CFI (cfiCond28) V0 load(1, XDATA, add(CFA_XSP16, literal(-21)))
        CFI (cfiCond28) V1 load(1, XDATA, add(CFA_XSP16, literal(-20)))
        CFI (cfiCond28) V2 load(1, XDATA, add(CFA_XSP16, literal(-19)))
        CFI (cfiCond28) V3 load(1, XDATA, add(CFA_XSP16, literal(-18)))
        CFI (cfiCond28) V4 load(1, XDATA, add(CFA_XSP16, literal(-17)))
        CFI (cfiCond28) V5 load(1, XDATA, add(CFA_XSP16, literal(-16)))
        CFI (cfiCond28) V6 load(1, XDATA, add(CFA_XSP16, literal(-15)))
        CFI (cfiCond28) V7 load(1, XDATA, add(CFA_XSP16, literal(-14)))
        CFI (cfiCond28) V8 load(1, XDATA, add(CFA_XSP16, literal(-13)))
        CFI (cfiCond28) V9 load(1, XDATA, add(CFA_XSP16, literal(-12)))
        CFI (cfiCond28) V10 load(1, XDATA, add(CFA_XSP16, literal(-11)))
        CFI (cfiCond28) V11 load(1, XDATA, add(CFA_XSP16, literal(-10)))
        CFI (cfiCond28) V12 load(1, XDATA, add(CFA_XSP16, literal(-9)))
        CFI (cfiCond28) V13 load(1, XDATA, add(CFA_XSP16, literal(-8)))
        CFI (cfiCond28) V14 load(1, XDATA, add(CFA_XSP16, literal(-7)))
        CFI (cfiCond28) R7 load(1, XDATA, add(CFA_XSP16, literal(-6)))
        CFI (cfiCond28) ?RET_LOW load(1, XDATA, add(CFA_XSP16, literal(-5)))
        CFI (cfiCond28) ?RET_HIGH load(1, XDATA, add(CFA_XSP16, literal(-4)))
        CFI (cfiCond28) ?BRET_EXT load(1, XDATA, add(CFA_XSP16, literal(-3)))
        CFI (cfiCond28) DPL0 load(1, XDATA, add(CFA_XSP16, literal(-2)))
        CFI (cfiCond28) DPH0 load(1, XDATA, add(CFA_XSP16, literal(-1)))
        CFI (cfiCond28) CFA_SP SP+0
        CFI (cfiCond28) CFA_XSP16 add(XSP16, 29)
        CFI Block cfiCond29 Using cfiCommon0
        CFI (cfiCond29) NoFunction
        CFI (cfiCond29) Conditional ??CrossCallReturnLabel_27
        CFI (cfiCond29) R6 load(1, XDATA, add(CFA_XSP16, literal(-23)))
        CFI (cfiCond29) VB load(1, XDATA, add(CFA_XSP16, literal(-22)))
        CFI (cfiCond29) V0 load(1, XDATA, add(CFA_XSP16, literal(-21)))
        CFI (cfiCond29) V1 load(1, XDATA, add(CFA_XSP16, literal(-20)))
        CFI (cfiCond29) V2 load(1, XDATA, add(CFA_XSP16, literal(-19)))
        CFI (cfiCond29) V3 load(1, XDATA, add(CFA_XSP16, literal(-18)))
        CFI (cfiCond29) V4 load(1, XDATA, add(CFA_XSP16, literal(-17)))
        CFI (cfiCond29) V5 load(1, XDATA, add(CFA_XSP16, literal(-16)))
        CFI (cfiCond29) V6 load(1, XDATA, add(CFA_XSP16, literal(-15)))
        CFI (cfiCond29) V7 load(1, XDATA, add(CFA_XSP16, literal(-14)))
        CFI (cfiCond29) V8 load(1, XDATA, add(CFA_XSP16, literal(-13)))
        CFI (cfiCond29) V9 load(1, XDATA, add(CFA_XSP16, literal(-12)))
        CFI (cfiCond29) V10 load(1, XDATA, add(CFA_XSP16, literal(-11)))
        CFI (cfiCond29) V11 load(1, XDATA, add(CFA_XSP16, literal(-10)))
        CFI (cfiCond29) V12 load(1, XDATA, add(CFA_XSP16, literal(-9)))
        CFI (cfiCond29) V13 load(1, XDATA, add(CFA_XSP16, literal(-8)))
        CFI (cfiCond29) V14 load(1, XDATA, add(CFA_XSP16, literal(-7)))
        CFI (cfiCond29) R7 load(1, XDATA, add(CFA_XSP16, literal(-6)))
        CFI (cfiCond29) ?RET_LOW load(1, XDATA, add(CFA_XSP16, literal(-5)))
        CFI (cfiCond29) ?RET_HIGH load(1, XDATA, add(CFA_XSP16, literal(-4)))
        CFI (cfiCond29) ?BRET_EXT load(1, XDATA, add(CFA_XSP16, literal(-3)))
        CFI (cfiCond29) DPL0 load(1, XDATA, add(CFA_XSP16, literal(-2)))
        CFI (cfiCond29) DPH0 load(1, XDATA, add(CFA_XSP16, literal(-1)))
        CFI (cfiCond29) CFA_SP SP+0
        CFI (cfiCond29) CFA_XSP16 add(XSP16, 29)
        CFI Block cfiCond30 Using cfiCommon0
        CFI (cfiCond30) NoFunction
        CFI (cfiCond30) Conditional ??CrossCallReturnLabel_28
        CFI (cfiCond30) R6 load(1, XDATA, add(CFA_XSP16, literal(-23)))
        CFI (cfiCond30) VB load(1, XDATA, add(CFA_XSP16, literal(-22)))
        CFI (cfiCond30) V0 load(1, XDATA, add(CFA_XSP16, literal(-21)))
        CFI (cfiCond30) V1 load(1, XDATA, add(CFA_XSP16, literal(-20)))
        CFI (cfiCond30) V2 load(1, XDATA, add(CFA_XSP16, literal(-19)))
        CFI (cfiCond30) V3 load(1, XDATA, add(CFA_XSP16, literal(-18)))
        CFI (cfiCond30) V4 load(1, XDATA, add(CFA_XSP16, literal(-17)))
        CFI (cfiCond30) V5 load(1, XDATA, add(CFA_XSP16, literal(-16)))
        CFI (cfiCond30) V6 load(1, XDATA, add(CFA_XSP16, literal(-15)))
        CFI (cfiCond30) V7 load(1, XDATA, add(CFA_XSP16, literal(-14)))
        CFI (cfiCond30) V8 load(1, XDATA, add(CFA_XSP16, literal(-13)))
        CFI (cfiCond30) V9 load(1, XDATA, add(CFA_XSP16, literal(-12)))
        CFI (cfiCond30) V10 load(1, XDATA, add(CFA_XSP16, literal(-11)))
        CFI (cfiCond30) V11 load(1, XDATA, add(CFA_XSP16, literal(-10)))
        CFI (cfiCond30) V12 load(1, XDATA, add(CFA_XSP16, literal(-9)))
        CFI (cfiCond30) V13 load(1, XDATA, add(CFA_XSP16, literal(-8)))
        CFI (cfiCond30) V14 load(1, XDATA, add(CFA_XSP16, literal(-7)))
        CFI (cfiCond30) R7 load(1, XDATA, add(CFA_XSP16, literal(-6)))
        CFI (cfiCond30) ?RET_LOW load(1, XDATA, add(CFA_XSP16, literal(-5)))
        CFI (cfiCond30) ?RET_HIGH load(1, XDATA, add(CFA_XSP16, literal(-4)))
        CFI (cfiCond30) ?BRET_EXT load(1, XDATA, add(CFA_XSP16, literal(-3)))
        CFI (cfiCond30) DPL0 load(1, XDATA, add(CFA_XSP16, literal(-2)))
        CFI (cfiCond30) DPH0 load(1, XDATA, add(CFA_XSP16, literal(-1)))
        CFI (cfiCond30) CFA_SP SP+0
        CFI (cfiCond30) CFA_XSP16 add(XSP16, 29)
        CFI Block cfiCond31 Using cfiCommon0
        CFI (cfiCond31) NoFunction
        CFI (cfiCond31) Conditional ??CrossCallReturnLabel_29
        CFI (cfiCond31) R6 load(1, XDATA, add(CFA_XSP16, literal(-23)))
        CFI (cfiCond31) VB load(1, XDATA, add(CFA_XSP16, literal(-22)))
        CFI (cfiCond31) V0 load(1, XDATA, add(CFA_XSP16, literal(-21)))
        CFI (cfiCond31) V1 load(1, XDATA, add(CFA_XSP16, literal(-20)))
        CFI (cfiCond31) V2 load(1, XDATA, add(CFA_XSP16, literal(-19)))
        CFI (cfiCond31) V3 load(1, XDATA, add(CFA_XSP16, literal(-18)))
        CFI (cfiCond31) V4 load(1, XDATA, add(CFA_XSP16, literal(-17)))
        CFI (cfiCond31) V5 load(1, XDATA, add(CFA_XSP16, literal(-16)))
        CFI (cfiCond31) V6 load(1, XDATA, add(CFA_XSP16, literal(-15)))
        CFI (cfiCond31) V7 load(1, XDATA, add(CFA_XSP16, literal(-14)))
        CFI (cfiCond31) V8 load(1, XDATA, add(CFA_XSP16, literal(-13)))
        CFI (cfiCond31) V9 load(1, XDATA, add(CFA_XSP16, literal(-12)))
        CFI (cfiCond31) V10 load(1, XDATA, add(CFA_XSP16, literal(-11)))
        CFI (cfiCond31) V11 load(1, XDATA, add(CFA_XSP16, literal(-10)))
        CFI (cfiCond31) V12 load(1, XDATA, add(CFA_XSP16, literal(-9)))
        CFI (cfiCond31) V13 load(1, XDATA, add(CFA_XSP16, literal(-8)))
        CFI (cfiCond31) V14 load(1, XDATA, add(CFA_XSP16, literal(-7)))
        CFI (cfiCond31) R7 load(1, XDATA, add(CFA_XSP16, literal(-6)))
        CFI (cfiCond31) ?RET_LOW load(1, XDATA, add(CFA_XSP16, literal(-5)))
        CFI (cfiCond31) ?RET_HIGH load(1, XDATA, add(CFA_XSP16, literal(-4)))
        CFI (cfiCond31) ?BRET_EXT load(1, XDATA, add(CFA_XSP16, literal(-3)))
        CFI (cfiCond31) DPL0 load(1, XDATA, add(CFA_XSP16, literal(-2)))
        CFI (cfiCond31) DPH0 load(1, XDATA, add(CFA_XSP16, literal(-1)))
        CFI (cfiCond31) CFA_SP SP+0
        CFI (cfiCond31) CFA_XSP16 add(XSP16, 29)
        CFI Block cfiCond32 Using cfiCommon0
        CFI (cfiCond32) NoFunction
        CFI (cfiCond32) Conditional ??CrossCallReturnLabel_30
        CFI (cfiCond32) R6 load(1, XDATA, add(CFA_XSP16, literal(-23)))
        CFI (cfiCond32) VB load(1, XDATA, add(CFA_XSP16, literal(-22)))
        CFI (cfiCond32) V0 load(1, XDATA, add(CFA_XSP16, literal(-21)))
        CFI (cfiCond32) V1 load(1, XDATA, add(CFA_XSP16, literal(-20)))
        CFI (cfiCond32) V2 load(1, XDATA, add(CFA_XSP16, literal(-19)))
        CFI (cfiCond32) V3 load(1, XDATA, add(CFA_XSP16, literal(-18)))
        CFI (cfiCond32) V4 load(1, XDATA, add(CFA_XSP16, literal(-17)))
        CFI (cfiCond32) V5 load(1, XDATA, add(CFA_XSP16, literal(-16)))
        CFI (cfiCond32) V6 load(1, XDATA, add(CFA_XSP16, literal(-15)))
        CFI (cfiCond32) V7 load(1, XDATA, add(CFA_XSP16, literal(-14)))
        CFI (cfiCond32) V8 load(1, XDATA, add(CFA_XSP16, literal(-13)))
        CFI (cfiCond32) V9 load(1, XDATA, add(CFA_XSP16, literal(-12)))
        CFI (cfiCond32) V10 load(1, XDATA, add(CFA_XSP16, literal(-11)))
        CFI (cfiCond32) V11 load(1, XDATA, add(CFA_XSP16, literal(-10)))
        CFI (cfiCond32) V12 load(1, XDATA, add(CFA_XSP16, literal(-9)))
        CFI (cfiCond32) V13 load(1, XDATA, add(CFA_XSP16, literal(-8)))
        CFI (cfiCond32) V14 load(1, XDATA, add(CFA_XSP16, literal(-7)))
        CFI (cfiCond32) R7 load(1, XDATA, add(CFA_XSP16, literal(-6)))
        CFI (cfiCond32) ?RET_LOW load(1, XDATA, add(CFA_XSP16, literal(-5)))
        CFI (cfiCond32) ?RET_HIGH load(1, XDATA, add(CFA_XSP16, literal(-4)))
        CFI (cfiCond32) ?BRET_EXT load(1, XDATA, add(CFA_XSP16, literal(-3)))
        CFI (cfiCond32) DPL0 load(1, XDATA, add(CFA_XSP16, literal(-2)))
        CFI (cfiCond32) DPH0 load(1, XDATA, add(CFA_XSP16, literal(-1)))
        CFI (cfiCond32) CFA_SP SP+0
        CFI (cfiCond32) CFA_XSP16 add(XSP16, 29)
        CFI Block cfiCond33 Using cfiCommon0
        CFI (cfiCond33) NoFunction
        CFI (cfiCond33) Conditional ??CrossCallReturnLabel_31
        CFI (cfiCond33) R6 load(1, XDATA, add(CFA_XSP16, literal(-23)))
        CFI (cfiCond33) VB load(1, XDATA, add(CFA_XSP16, literal(-22)))
        CFI (cfiCond33) V0 load(1, XDATA, add(CFA_XSP16, literal(-21)))
        CFI (cfiCond33) V1 load(1, XDATA, add(CFA_XSP16, literal(-20)))
        CFI (cfiCond33) V2 load(1, XDATA, add(CFA_XSP16, literal(-19)))
        CFI (cfiCond33) V3 load(1, XDATA, add(CFA_XSP16, literal(-18)))
        CFI (cfiCond33) V4 load(1, XDATA, add(CFA_XSP16, literal(-17)))
        CFI (cfiCond33) V5 load(1, XDATA, add(CFA_XSP16, literal(-16)))
        CFI (cfiCond33) V6 load(1, XDATA, add(CFA_XSP16, literal(-15)))
        CFI (cfiCond33) V7 load(1, XDATA, add(CFA_XSP16, literal(-14)))
        CFI (cfiCond33) V8 load(1, XDATA, add(CFA_XSP16, literal(-13)))
        CFI (cfiCond33) V9 load(1, XDATA, add(CFA_XSP16, literal(-12)))
        CFI (cfiCond33) V10 load(1, XDATA, add(CFA_XSP16, literal(-11)))
        CFI (cfiCond33) V11 load(1, XDATA, add(CFA_XSP16, literal(-10)))
        CFI (cfiCond33) V12 load(1, XDATA, add(CFA_XSP16, literal(-9)))
        CFI (cfiCond33) V13 load(1, XDATA, add(CFA_XSP16, literal(-8)))
        CFI (cfiCond33) V14 load(1, XDATA, add(CFA_XSP16, literal(-7)))
        CFI (cfiCond33) R7 load(1, XDATA, add(CFA_XSP16, literal(-6)))
        CFI (cfiCond33) ?RET_LOW load(1, XDATA, add(CFA_XSP16, literal(-5)))
        CFI (cfiCond33) ?RET_HIGH load(1, XDATA, add(CFA_XSP16, literal(-4)))
        CFI (cfiCond33) ?BRET_EXT load(1, XDATA, add(CFA_XSP16, literal(-3)))
        CFI (cfiCond33) DPL0 load(1, XDATA, add(CFA_XSP16, literal(-2)))
        CFI (cfiCond33) DPH0 load(1, XDATA, add(CFA_XSP16, literal(-1)))
        CFI (cfiCond33) CFA_SP SP+0
        CFI (cfiCond33) CFA_XSP16 add(XSP16, 29)
        CFI Block cfiCond34 Using cfiCommon0
        CFI (cfiCond34) NoFunction
        CFI (cfiCond34) Conditional ??CrossCallReturnLabel_32
        CFI (cfiCond34) R6 load(1, XDATA, add(CFA_XSP16, literal(-23)))
        CFI (cfiCond34) VB load(1, XDATA, add(CFA_XSP16, literal(-22)))
        CFI (cfiCond34) V0 load(1, XDATA, add(CFA_XSP16, literal(-21)))
        CFI (cfiCond34) V1 load(1, XDATA, add(CFA_XSP16, literal(-20)))
        CFI (cfiCond34) V2 load(1, XDATA, add(CFA_XSP16, literal(-19)))
        CFI (cfiCond34) V3 load(1, XDATA, add(CFA_XSP16, literal(-18)))
        CFI (cfiCond34) V4 load(1, XDATA, add(CFA_XSP16, literal(-17)))
        CFI (cfiCond34) V5 load(1, XDATA, add(CFA_XSP16, literal(-16)))
        CFI (cfiCond34) V6 load(1, XDATA, add(CFA_XSP16, literal(-15)))
        CFI (cfiCond34) V7 load(1, XDATA, add(CFA_XSP16, literal(-14)))
        CFI (cfiCond34) V8 load(1, XDATA, add(CFA_XSP16, literal(-13)))
        CFI (cfiCond34) V9 load(1, XDATA, add(CFA_XSP16, literal(-12)))
        CFI (cfiCond34) V10 load(1, XDATA, add(CFA_XSP16, literal(-11)))
        CFI (cfiCond34) V11 load(1, XDATA, add(CFA_XSP16, literal(-10)))
        CFI (cfiCond34) V12 load(1, XDATA, add(CFA_XSP16, literal(-9)))
        CFI (cfiCond34) V13 load(1, XDATA, add(CFA_XSP16, literal(-8)))
        CFI (cfiCond34) V14 load(1, XDATA, add(CFA_XSP16, literal(-7)))
        CFI (cfiCond34) R7 load(1, XDATA, add(CFA_XSP16, literal(-6)))
        CFI (cfiCond34) ?RET_LOW load(1, XDATA, add(CFA_XSP16, literal(-5)))
        CFI (cfiCond34) ?RET_HIGH load(1, XDATA, add(CFA_XSP16, literal(-4)))
        CFI (cfiCond34) ?BRET_EXT load(1, XDATA, add(CFA_XSP16, literal(-3)))
        CFI (cfiCond34) DPL0 load(1, XDATA, add(CFA_XSP16, literal(-2)))
        CFI (cfiCond34) DPH0 load(1, XDATA, add(CFA_XSP16, literal(-1)))
        CFI (cfiCond34) CFA_SP SP+0
        CFI (cfiCond34) CFA_XSP16 add(XSP16, 29)
        CFI Block cfiCond35 Using cfiCommon0
        CFI (cfiCond35) NoFunction
        CFI (cfiCond35) Conditional ??CrossCallReturnLabel_33
        CFI (cfiCond35) R6 load(1, XDATA, add(CFA_XSP16, literal(-23)))
        CFI (cfiCond35) VB load(1, XDATA, add(CFA_XSP16, literal(-22)))
        CFI (cfiCond35) V0 load(1, XDATA, add(CFA_XSP16, literal(-21)))
        CFI (cfiCond35) V1 load(1, XDATA, add(CFA_XSP16, literal(-20)))
        CFI (cfiCond35) V2 load(1, XDATA, add(CFA_XSP16, literal(-19)))
        CFI (cfiCond35) V3 load(1, XDATA, add(CFA_XSP16, literal(-18)))
        CFI (cfiCond35) V4 load(1, XDATA, add(CFA_XSP16, literal(-17)))
        CFI (cfiCond35) V5 load(1, XDATA, add(CFA_XSP16, literal(-16)))
        CFI (cfiCond35) V6 load(1, XDATA, add(CFA_XSP16, literal(-15)))
        CFI (cfiCond35) V7 load(1, XDATA, add(CFA_XSP16, literal(-14)))
        CFI (cfiCond35) V8 load(1, XDATA, add(CFA_XSP16, literal(-13)))
        CFI (cfiCond35) V9 load(1, XDATA, add(CFA_XSP16, literal(-12)))
        CFI (cfiCond35) V10 load(1, XDATA, add(CFA_XSP16, literal(-11)))
        CFI (cfiCond35) V11 load(1, XDATA, add(CFA_XSP16, literal(-10)))
        CFI (cfiCond35) V12 load(1, XDATA, add(CFA_XSP16, literal(-9)))
        CFI (cfiCond35) V13 load(1, XDATA, add(CFA_XSP16, literal(-8)))
        CFI (cfiCond35) V14 load(1, XDATA, add(CFA_XSP16, literal(-7)))
        CFI (cfiCond35) R7 load(1, XDATA, add(CFA_XSP16, literal(-6)))
        CFI (cfiCond35) ?RET_LOW load(1, XDATA, add(CFA_XSP16, literal(-5)))
        CFI (cfiCond35) ?RET_HIGH load(1, XDATA, add(CFA_XSP16, literal(-4)))
        CFI (cfiCond35) ?BRET_EXT load(1, XDATA, add(CFA_XSP16, literal(-3)))
        CFI (cfiCond35) DPL0 load(1, XDATA, add(CFA_XSP16, literal(-2)))
        CFI (cfiCond35) DPH0 load(1, XDATA, add(CFA_XSP16, literal(-1)))
        CFI (cfiCond35) CFA_SP SP+0
        CFI (cfiCond35) CFA_XSP16 add(XSP16, 29)
        CFI Block cfiCond36 Using cfiCommon0
        CFI (cfiCond36) NoFunction
        CFI (cfiCond36) Conditional ??CrossCallReturnLabel_34
        CFI (cfiCond36) R6 load(1, XDATA, add(CFA_XSP16, literal(-23)))
        CFI (cfiCond36) VB load(1, XDATA, add(CFA_XSP16, literal(-22)))
        CFI (cfiCond36) V0 load(1, XDATA, add(CFA_XSP16, literal(-21)))
        CFI (cfiCond36) V1 load(1, XDATA, add(CFA_XSP16, literal(-20)))
        CFI (cfiCond36) V2 load(1, XDATA, add(CFA_XSP16, literal(-19)))
        CFI (cfiCond36) V3 load(1, XDATA, add(CFA_XSP16, literal(-18)))
        CFI (cfiCond36) V4 load(1, XDATA, add(CFA_XSP16, literal(-17)))
        CFI (cfiCond36) V5 load(1, XDATA, add(CFA_XSP16, literal(-16)))
        CFI (cfiCond36) V6 load(1, XDATA, add(CFA_XSP16, literal(-15)))
        CFI (cfiCond36) V7 load(1, XDATA, add(CFA_XSP16, literal(-14)))
        CFI (cfiCond36) V8 load(1, XDATA, add(CFA_XSP16, literal(-13)))
        CFI (cfiCond36) V9 load(1, XDATA, add(CFA_XSP16, literal(-12)))
        CFI (cfiCond36) V10 load(1, XDATA, add(CFA_XSP16, literal(-11)))
        CFI (cfiCond36) V11 load(1, XDATA, add(CFA_XSP16, literal(-10)))
        CFI (cfiCond36) V12 load(1, XDATA, add(CFA_XSP16, literal(-9)))
        CFI (cfiCond36) V13 load(1, XDATA, add(CFA_XSP16, literal(-8)))
        CFI (cfiCond36) V14 load(1, XDATA, add(CFA_XSP16, literal(-7)))
        CFI (cfiCond36) R7 load(1, XDATA, add(CFA_XSP16, literal(-6)))
        CFI (cfiCond36) ?RET_LOW load(1, XDATA, add(CFA_XSP16, literal(-5)))
        CFI (cfiCond36) ?RET_HIGH load(1, XDATA, add(CFA_XSP16, literal(-4)))
        CFI (cfiCond36) ?BRET_EXT load(1, XDATA, add(CFA_XSP16, literal(-3)))
        CFI (cfiCond36) DPL0 load(1, XDATA, add(CFA_XSP16, literal(-2)))
        CFI (cfiCond36) DPH0 load(1, XDATA, add(CFA_XSP16, literal(-1)))
        CFI (cfiCond36) CFA_SP SP+0
        CFI (cfiCond36) CFA_XSP16 add(XSP16, 29)
        CFI Block cfiCond37 Using cfiCommon0
        CFI (cfiCond37) NoFunction
        CFI (cfiCond37) Conditional ??CrossCallReturnLabel_35
        CFI (cfiCond37) R6 load(1, XDATA, add(CFA_XSP16, literal(-23)))
        CFI (cfiCond37) VB load(1, XDATA, add(CFA_XSP16, literal(-22)))
        CFI (cfiCond37) V0 load(1, XDATA, add(CFA_XSP16, literal(-21)))
        CFI (cfiCond37) V1 load(1, XDATA, add(CFA_XSP16, literal(-20)))
        CFI (cfiCond37) V2 load(1, XDATA, add(CFA_XSP16, literal(-19)))
        CFI (cfiCond37) V3 load(1, XDATA, add(CFA_XSP16, literal(-18)))
        CFI (cfiCond37) V4 load(1, XDATA, add(CFA_XSP16, literal(-17)))
        CFI (cfiCond37) V5 load(1, XDATA, add(CFA_XSP16, literal(-16)))
        CFI (cfiCond37) V6 load(1, XDATA, add(CFA_XSP16, literal(-15)))
        CFI (cfiCond37) V7 load(1, XDATA, add(CFA_XSP16, literal(-14)))
        CFI (cfiCond37) V8 load(1, XDATA, add(CFA_XSP16, literal(-13)))
        CFI (cfiCond37) V9 load(1, XDATA, add(CFA_XSP16, literal(-12)))
        CFI (cfiCond37) V10 load(1, XDATA, add(CFA_XSP16, literal(-11)))
        CFI (cfiCond37) V11 load(1, XDATA, add(CFA_XSP16, literal(-10)))
        CFI (cfiCond37) V12 load(1, XDATA, add(CFA_XSP16, literal(-9)))
        CFI (cfiCond37) V13 load(1, XDATA, add(CFA_XSP16, literal(-8)))
        CFI (cfiCond37) V14 load(1, XDATA, add(CFA_XSP16, literal(-7)))
        CFI (cfiCond37) R7 load(1, XDATA, add(CFA_XSP16, literal(-6)))
        CFI (cfiCond37) ?RET_LOW load(1, XDATA, add(CFA_XSP16, literal(-5)))
        CFI (cfiCond37) ?RET_HIGH load(1, XDATA, add(CFA_XSP16, literal(-4)))
        CFI (cfiCond37) ?BRET_EXT load(1, XDATA, add(CFA_XSP16, literal(-3)))
        CFI (cfiCond37) DPL0 load(1, XDATA, add(CFA_XSP16, literal(-2)))
        CFI (cfiCond37) DPH0 load(1, XDATA, add(CFA_XSP16, literal(-1)))
        CFI (cfiCond37) CFA_SP SP+0
        CFI (cfiCond37) CFA_XSP16 add(XSP16, 29)
        CFI Block cfiCond38 Using cfiCommon0
        CFI (cfiCond38) NoFunction
        CFI (cfiCond38) Conditional ??CrossCallReturnLabel_36
        CFI (cfiCond38) R6 load(1, XDATA, add(CFA_XSP16, literal(-23)))
        CFI (cfiCond38) VB load(1, XDATA, add(CFA_XSP16, literal(-22)))
        CFI (cfiCond38) V0 load(1, XDATA, add(CFA_XSP16, literal(-21)))
        CFI (cfiCond38) V1 load(1, XDATA, add(CFA_XSP16, literal(-20)))
        CFI (cfiCond38) V2 load(1, XDATA, add(CFA_XSP16, literal(-19)))
        CFI (cfiCond38) V3 load(1, XDATA, add(CFA_XSP16, literal(-18)))
        CFI (cfiCond38) V4 load(1, XDATA, add(CFA_XSP16, literal(-17)))
        CFI (cfiCond38) V5 load(1, XDATA, add(CFA_XSP16, literal(-16)))
        CFI (cfiCond38) V6 load(1, XDATA, add(CFA_XSP16, literal(-15)))
        CFI (cfiCond38) V7 load(1, XDATA, add(CFA_XSP16, literal(-14)))
        CFI (cfiCond38) V8 load(1, XDATA, add(CFA_XSP16, literal(-13)))
        CFI (cfiCond38) V9 load(1, XDATA, add(CFA_XSP16, literal(-12)))
        CFI (cfiCond38) V10 load(1, XDATA, add(CFA_XSP16, literal(-11)))
        CFI (cfiCond38) V11 load(1, XDATA, add(CFA_XSP16, literal(-10)))
        CFI (cfiCond38) V12 load(1, XDATA, add(CFA_XSP16, literal(-9)))
        CFI (cfiCond38) V13 load(1, XDATA, add(CFA_XSP16, literal(-8)))
        CFI (cfiCond38) V14 load(1, XDATA, add(CFA_XSP16, literal(-7)))
        CFI (cfiCond38) R7 load(1, XDATA, add(CFA_XSP16, literal(-6)))
        CFI (cfiCond38) ?RET_LOW load(1, XDATA, add(CFA_XSP16, literal(-5)))
        CFI (cfiCond38) ?RET_HIGH load(1, XDATA, add(CFA_XSP16, literal(-4)))
        CFI (cfiCond38) ?BRET_EXT load(1, XDATA, add(CFA_XSP16, literal(-3)))
        CFI (cfiCond38) DPL0 load(1, XDATA, add(CFA_XSP16, literal(-2)))
        CFI (cfiCond38) DPH0 load(1, XDATA, add(CFA_XSP16, literal(-1)))
        CFI (cfiCond38) CFA_SP SP+0
        CFI (cfiCond38) CFA_XSP16 add(XSP16, 29)
        CFI Block cfiCond39 Using cfiCommon0
        CFI (cfiCond39) NoFunction
        CFI (cfiCond39) Conditional ??CrossCallReturnLabel_37
        CFI (cfiCond39) R6 load(1, XDATA, add(CFA_XSP16, literal(-23)))
        CFI (cfiCond39) VB load(1, XDATA, add(CFA_XSP16, literal(-22)))
        CFI (cfiCond39) V0 load(1, XDATA, add(CFA_XSP16, literal(-21)))
        CFI (cfiCond39) V1 load(1, XDATA, add(CFA_XSP16, literal(-20)))
        CFI (cfiCond39) V2 load(1, XDATA, add(CFA_XSP16, literal(-19)))
        CFI (cfiCond39) V3 load(1, XDATA, add(CFA_XSP16, literal(-18)))
        CFI (cfiCond39) V4 load(1, XDATA, add(CFA_XSP16, literal(-17)))
        CFI (cfiCond39) V5 load(1, XDATA, add(CFA_XSP16, literal(-16)))
        CFI (cfiCond39) V6 load(1, XDATA, add(CFA_XSP16, literal(-15)))
        CFI (cfiCond39) V7 load(1, XDATA, add(CFA_XSP16, literal(-14)))
        CFI (cfiCond39) V8 load(1, XDATA, add(CFA_XSP16, literal(-13)))
        CFI (cfiCond39) V9 load(1, XDATA, add(CFA_XSP16, literal(-12)))
        CFI (cfiCond39) V10 load(1, XDATA, add(CFA_XSP16, literal(-11)))
        CFI (cfiCond39) V11 load(1, XDATA, add(CFA_XSP16, literal(-10)))
        CFI (cfiCond39) V12 load(1, XDATA, add(CFA_XSP16, literal(-9)))
        CFI (cfiCond39) V13 load(1, XDATA, add(CFA_XSP16, literal(-8)))
        CFI (cfiCond39) V14 load(1, XDATA, add(CFA_XSP16, literal(-7)))
        CFI (cfiCond39) R7 load(1, XDATA, add(CFA_XSP16, literal(-6)))
        CFI (cfiCond39) ?RET_LOW load(1, XDATA, add(CFA_XSP16, literal(-5)))
        CFI (cfiCond39) ?RET_HIGH load(1, XDATA, add(CFA_XSP16, literal(-4)))
        CFI (cfiCond39) ?BRET_EXT load(1, XDATA, add(CFA_XSP16, literal(-3)))
        CFI (cfiCond39) DPL0 load(1, XDATA, add(CFA_XSP16, literal(-2)))
        CFI (cfiCond39) DPH0 load(1, XDATA, add(CFA_XSP16, literal(-1)))
        CFI (cfiCond39) CFA_SP SP+0
        CFI (cfiCond39) CFA_XSP16 add(XSP16, 29)
        CFI Block cfiCond40 Using cfiCommon0
        CFI (cfiCond40) NoFunction
        CFI (cfiCond40) Conditional ??CrossCallReturnLabel_38
        CFI (cfiCond40) R6 load(1, XDATA, add(CFA_XSP16, literal(-23)))
        CFI (cfiCond40) VB load(1, XDATA, add(CFA_XSP16, literal(-22)))
        CFI (cfiCond40) V0 load(1, XDATA, add(CFA_XSP16, literal(-21)))
        CFI (cfiCond40) V1 load(1, XDATA, add(CFA_XSP16, literal(-20)))
        CFI (cfiCond40) V2 load(1, XDATA, add(CFA_XSP16, literal(-19)))
        CFI (cfiCond40) V3 load(1, XDATA, add(CFA_XSP16, literal(-18)))
        CFI (cfiCond40) V4 load(1, XDATA, add(CFA_XSP16, literal(-17)))
        CFI (cfiCond40) V5 load(1, XDATA, add(CFA_XSP16, literal(-16)))
        CFI (cfiCond40) V6 load(1, XDATA, add(CFA_XSP16, literal(-15)))
        CFI (cfiCond40) V7 load(1, XDATA, add(CFA_XSP16, literal(-14)))
        CFI (cfiCond40) V8 load(1, XDATA, add(CFA_XSP16, literal(-13)))
        CFI (cfiCond40) V9 load(1, XDATA, add(CFA_XSP16, literal(-12)))
        CFI (cfiCond40) V10 load(1, XDATA, add(CFA_XSP16, literal(-11)))
        CFI (cfiCond40) V11 load(1, XDATA, add(CFA_XSP16, literal(-10)))
        CFI (cfiCond40) V12 load(1, XDATA, add(CFA_XSP16, literal(-9)))
        CFI (cfiCond40) V13 load(1, XDATA, add(CFA_XSP16, literal(-8)))
        CFI (cfiCond40) V14 load(1, XDATA, add(CFA_XSP16, literal(-7)))
        CFI (cfiCond40) R7 load(1, XDATA, add(CFA_XSP16, literal(-6)))
        CFI (cfiCond40) ?RET_LOW load(1, XDATA, add(CFA_XSP16, literal(-5)))
        CFI (cfiCond40) ?RET_HIGH load(1, XDATA, add(CFA_XSP16, literal(-4)))
        CFI (cfiCond40) ?BRET_EXT load(1, XDATA, add(CFA_XSP16, literal(-3)))
        CFI (cfiCond40) DPL0 load(1, XDATA, add(CFA_XSP16, literal(-2)))
        CFI (cfiCond40) DPH0 load(1, XDATA, add(CFA_XSP16, literal(-1)))
        CFI (cfiCond40) CFA_SP SP+0
        CFI (cfiCond40) CFA_XSP16 add(XSP16, 29)
        CFI Block cfiCond41 Using cfiCommon0
        CFI (cfiCond41) NoFunction
        CFI (cfiCond41) Conditional ??CrossCallReturnLabel_20
        CFI (cfiCond41) R6 load(1, XDATA, add(CFA_XSP16, literal(-23)))
        CFI (cfiCond41) VB load(1, XDATA, add(CFA_XSP16, literal(-22)))
        CFI (cfiCond41) V0 load(1, XDATA, add(CFA_XSP16, literal(-21)))
        CFI (cfiCond41) V1 load(1, XDATA, add(CFA_XSP16, literal(-20)))
        CFI (cfiCond41) V2 load(1, XDATA, add(CFA_XSP16, literal(-19)))
        CFI (cfiCond41) V3 load(1, XDATA, add(CFA_XSP16, literal(-18)))
        CFI (cfiCond41) V4 load(1, XDATA, add(CFA_XSP16, literal(-17)))
        CFI (cfiCond41) V5 load(1, XDATA, add(CFA_XSP16, literal(-16)))
        CFI (cfiCond41) V6 load(1, XDATA, add(CFA_XSP16, literal(-15)))
        CFI (cfiCond41) V7 load(1, XDATA, add(CFA_XSP16, literal(-14)))
        CFI (cfiCond41) V8 load(1, XDATA, add(CFA_XSP16, literal(-13)))
        CFI (cfiCond41) V9 load(1, XDATA, add(CFA_XSP16, literal(-12)))
        CFI (cfiCond41) V10 load(1, XDATA, add(CFA_XSP16, literal(-11)))
        CFI (cfiCond41) V11 load(1, XDATA, add(CFA_XSP16, literal(-10)))
        CFI (cfiCond41) V12 load(1, XDATA, add(CFA_XSP16, literal(-9)))
        CFI (cfiCond41) V13 load(1, XDATA, add(CFA_XSP16, literal(-8)))
        CFI (cfiCond41) V14 load(1, XDATA, add(CFA_XSP16, literal(-7)))
        CFI (cfiCond41) R7 load(1, XDATA, add(CFA_XSP16, literal(-6)))
        CFI (cfiCond41) ?RET_LOW load(1, XDATA, add(CFA_XSP16, literal(-5)))
        CFI (cfiCond41) ?RET_HIGH load(1, XDATA, add(CFA_XSP16, literal(-4)))
        CFI (cfiCond41) ?BRET_EXT load(1, XDATA, add(CFA_XSP16, literal(-3)))
        CFI (cfiCond41) DPL0 load(1, XDATA, add(CFA_XSP16, literal(-2)))
        CFI (cfiCond41) DPH0 load(1, XDATA, add(CFA_XSP16, literal(-1)))
        CFI (cfiCond41) CFA_SP SP+0
        CFI (cfiCond41) CFA_XSP16 add(XSP16, 29)
        CFI Block cfiCond42 Using cfiCommon0
        CFI (cfiCond42) NoFunction
        CFI (cfiCond42) Conditional ??CrossCallReturnLabel_16
        CFI (cfiCond42) R6 load(1, XDATA, add(CFA_XSP16, literal(-23)))
        CFI (cfiCond42) VB load(1, XDATA, add(CFA_XSP16, literal(-22)))
        CFI (cfiCond42) V0 load(1, XDATA, add(CFA_XSP16, literal(-21)))
        CFI (cfiCond42) V1 load(1, XDATA, add(CFA_XSP16, literal(-20)))
        CFI (cfiCond42) V2 load(1, XDATA, add(CFA_XSP16, literal(-19)))
        CFI (cfiCond42) V3 load(1, XDATA, add(CFA_XSP16, literal(-18)))
        CFI (cfiCond42) V4 load(1, XDATA, add(CFA_XSP16, literal(-17)))
        CFI (cfiCond42) V5 load(1, XDATA, add(CFA_XSP16, literal(-16)))
        CFI (cfiCond42) V6 load(1, XDATA, add(CFA_XSP16, literal(-15)))
        CFI (cfiCond42) V7 load(1, XDATA, add(CFA_XSP16, literal(-14)))
        CFI (cfiCond42) V8 load(1, XDATA, add(CFA_XSP16, literal(-13)))
        CFI (cfiCond42) V9 load(1, XDATA, add(CFA_XSP16, literal(-12)))
        CFI (cfiCond42) V10 load(1, XDATA, add(CFA_XSP16, literal(-11)))
        CFI (cfiCond42) V11 load(1, XDATA, add(CFA_XSP16, literal(-10)))
        CFI (cfiCond42) V12 load(1, XDATA, add(CFA_XSP16, literal(-9)))
        CFI (cfiCond42) V13 load(1, XDATA, add(CFA_XSP16, literal(-8)))
        CFI (cfiCond42) V14 load(1, XDATA, add(CFA_XSP16, literal(-7)))
        CFI (cfiCond42) R7 load(1, XDATA, add(CFA_XSP16, literal(-6)))
        CFI (cfiCond42) ?RET_LOW load(1, XDATA, add(CFA_XSP16, literal(-5)))
        CFI (cfiCond42) ?RET_HIGH load(1, XDATA, add(CFA_XSP16, literal(-4)))
        CFI (cfiCond42) ?BRET_EXT load(1, XDATA, add(CFA_XSP16, literal(-3)))
        CFI (cfiCond42) DPL0 load(1, XDATA, add(CFA_XSP16, literal(-2)))
        CFI (cfiCond42) DPH0 load(1, XDATA, add(CFA_XSP16, literal(-1)))
        CFI (cfiCond42) CFA_SP SP+0
        CFI (cfiCond42) CFA_XSP16 add(XSP16, 29)
        CFI Block cfiCond43 Using cfiCommon0
        CFI (cfiCond43) NoFunction
        CFI (cfiCond43) Conditional ??CrossCallReturnLabel_17
        CFI (cfiCond43) R6 load(1, XDATA, add(CFA_XSP16, literal(-23)))
        CFI (cfiCond43) VB load(1, XDATA, add(CFA_XSP16, literal(-22)))
        CFI (cfiCond43) V0 load(1, XDATA, add(CFA_XSP16, literal(-21)))
        CFI (cfiCond43) V1 load(1, XDATA, add(CFA_XSP16, literal(-20)))
        CFI (cfiCond43) V2 load(1, XDATA, add(CFA_XSP16, literal(-19)))
        CFI (cfiCond43) V3 load(1, XDATA, add(CFA_XSP16, literal(-18)))
        CFI (cfiCond43) V4 load(1, XDATA, add(CFA_XSP16, literal(-17)))
        CFI (cfiCond43) V5 load(1, XDATA, add(CFA_XSP16, literal(-16)))
        CFI (cfiCond43) V6 load(1, XDATA, add(CFA_XSP16, literal(-15)))
        CFI (cfiCond43) V7 load(1, XDATA, add(CFA_XSP16, literal(-14)))
        CFI (cfiCond43) V8 load(1, XDATA, add(CFA_XSP16, literal(-13)))
        CFI (cfiCond43) V9 load(1, XDATA, add(CFA_XSP16, literal(-12)))
        CFI (cfiCond43) V10 load(1, XDATA, add(CFA_XSP16, literal(-11)))
        CFI (cfiCond43) V11 load(1, XDATA, add(CFA_XSP16, literal(-10)))
        CFI (cfiCond43) V12 load(1, XDATA, add(CFA_XSP16, literal(-9)))
        CFI (cfiCond43) V13 load(1, XDATA, add(CFA_XSP16, literal(-8)))
        CFI (cfiCond43) V14 load(1, XDATA, add(CFA_XSP16, literal(-7)))
        CFI (cfiCond43) R7 load(1, XDATA, add(CFA_XSP16, literal(-6)))
        CFI (cfiCond43) ?RET_LOW load(1, XDATA, add(CFA_XSP16, literal(-5)))
        CFI (cfiCond43) ?RET_HIGH load(1, XDATA, add(CFA_XSP16, literal(-4)))
        CFI (cfiCond43) ?BRET_EXT load(1, XDATA, add(CFA_XSP16, literal(-3)))
        CFI (cfiCond43) DPL0 load(1, XDATA, add(CFA_XSP16, literal(-2)))
        CFI (cfiCond43) DPH0 load(1, XDATA, add(CFA_XSP16, literal(-1)))
        CFI (cfiCond43) CFA_SP SP+0
        CFI (cfiCond43) CFA_XSP16 add(XSP16, 29)
        CFI Block cfiCond44 Using cfiCommon0
        CFI (cfiCond44) NoFunction
        CFI (cfiCond44) Conditional ??CrossCallReturnLabel_18
        CFI (cfiCond44) R6 load(1, XDATA, add(CFA_XSP16, literal(-23)))
        CFI (cfiCond44) VB load(1, XDATA, add(CFA_XSP16, literal(-22)))
        CFI (cfiCond44) V0 load(1, XDATA, add(CFA_XSP16, literal(-21)))
        CFI (cfiCond44) V1 load(1, XDATA, add(CFA_XSP16, literal(-20)))
        CFI (cfiCond44) V2 load(1, XDATA, add(CFA_XSP16, literal(-19)))
        CFI (cfiCond44) V3 load(1, XDATA, add(CFA_XSP16, literal(-18)))
        CFI (cfiCond44) V4 load(1, XDATA, add(CFA_XSP16, literal(-17)))
        CFI (cfiCond44) V5 load(1, XDATA, add(CFA_XSP16, literal(-16)))
        CFI (cfiCond44) V6 load(1, XDATA, add(CFA_XSP16, literal(-15)))
        CFI (cfiCond44) V7 load(1, XDATA, add(CFA_XSP16, literal(-14)))
        CFI (cfiCond44) V8 load(1, XDATA, add(CFA_XSP16, literal(-13)))
        CFI (cfiCond44) V9 load(1, XDATA, add(CFA_XSP16, literal(-12)))
        CFI (cfiCond44) V10 load(1, XDATA, add(CFA_XSP16, literal(-11)))
        CFI (cfiCond44) V11 load(1, XDATA, add(CFA_XSP16, literal(-10)))
        CFI (cfiCond44) V12 load(1, XDATA, add(CFA_XSP16, literal(-9)))
        CFI (cfiCond44) V13 load(1, XDATA, add(CFA_XSP16, literal(-8)))
        CFI (cfiCond44) V14 load(1, XDATA, add(CFA_XSP16, literal(-7)))
        CFI (cfiCond44) R7 load(1, XDATA, add(CFA_XSP16, literal(-6)))
        CFI (cfiCond44) ?RET_LOW load(1, XDATA, add(CFA_XSP16, literal(-5)))
        CFI (cfiCond44) ?RET_HIGH load(1, XDATA, add(CFA_XSP16, literal(-4)))
        CFI (cfiCond44) ?BRET_EXT load(1, XDATA, add(CFA_XSP16, literal(-3)))
        CFI (cfiCond44) DPL0 load(1, XDATA, add(CFA_XSP16, literal(-2)))
        CFI (cfiCond44) DPH0 load(1, XDATA, add(CFA_XSP16, literal(-1)))
        CFI (cfiCond44) CFA_SP SP+0
        CFI (cfiCond44) CFA_XSP16 add(XSP16, 29)
        CFI Block cfiCond45 Using cfiCommon0
        CFI (cfiCond45) NoFunction
        CFI (cfiCond45) Conditional ??CrossCallReturnLabel_19
        CFI (cfiCond45) R6 load(1, XDATA, add(CFA_XSP16, literal(-23)))
        CFI (cfiCond45) VB load(1, XDATA, add(CFA_XSP16, literal(-22)))
        CFI (cfiCond45) V0 load(1, XDATA, add(CFA_XSP16, literal(-21)))
        CFI (cfiCond45) V1 load(1, XDATA, add(CFA_XSP16, literal(-20)))
        CFI (cfiCond45) V2 load(1, XDATA, add(CFA_XSP16, literal(-19)))
        CFI (cfiCond45) V3 load(1, XDATA, add(CFA_XSP16, literal(-18)))
        CFI (cfiCond45) V4 load(1, XDATA, add(CFA_XSP16, literal(-17)))
        CFI (cfiCond45) V5 load(1, XDATA, add(CFA_XSP16, literal(-16)))
        CFI (cfiCond45) V6 load(1, XDATA, add(CFA_XSP16, literal(-15)))
        CFI (cfiCond45) V7 load(1, XDATA, add(CFA_XSP16, literal(-14)))
        CFI (cfiCond45) V8 load(1, XDATA, add(CFA_XSP16, literal(-13)))
        CFI (cfiCond45) V9 load(1, XDATA, add(CFA_XSP16, literal(-12)))
        CFI (cfiCond45) V10 load(1, XDATA, add(CFA_XSP16, literal(-11)))
        CFI (cfiCond45) V11 load(1, XDATA, add(CFA_XSP16, literal(-10)))
        CFI (cfiCond45) V12 load(1, XDATA, add(CFA_XSP16, literal(-9)))
        CFI (cfiCond45) V13 load(1, XDATA, add(CFA_XSP16, literal(-8)))
        CFI (cfiCond45) V14 load(1, XDATA, add(CFA_XSP16, literal(-7)))
        CFI (cfiCond45) R7 load(1, XDATA, add(CFA_XSP16, literal(-6)))
        CFI (cfiCond45) ?RET_LOW load(1, XDATA, add(CFA_XSP16, literal(-5)))
        CFI (cfiCond45) ?RET_HIGH load(1, XDATA, add(CFA_XSP16, literal(-4)))
        CFI (cfiCond45) ?BRET_EXT load(1, XDATA, add(CFA_XSP16, literal(-3)))
        CFI (cfiCond45) DPL0 load(1, XDATA, add(CFA_XSP16, literal(-2)))
        CFI (cfiCond45) DPH0 load(1, XDATA, add(CFA_XSP16, literal(-1)))
        CFI (cfiCond45) CFA_SP SP+0
        CFI (cfiCond45) CFA_XSP16 add(XSP16, 29)
        CFI Block cfiPicker46 Using cfiCommon1
        CFI (cfiPicker46) NoFunction
        CFI (cfiPicker46) Picker
        LCALL   ??osal_memcpy?relay
        MOV     A,#0x3
        RET
        CFI EndBlock cfiCond23
        CFI EndBlock cfiCond24
        CFI EndBlock cfiCond25
        CFI EndBlock cfiCond26
        CFI EndBlock cfiCond27
        CFI EndBlock cfiCond28
        CFI EndBlock cfiCond29
        CFI EndBlock cfiCond30
        CFI EndBlock cfiCond31
        CFI EndBlock cfiCond32
        CFI EndBlock cfiCond33
        CFI EndBlock cfiCond34
        CFI EndBlock cfiCond35
        CFI EndBlock cfiCond36
        CFI EndBlock cfiCond37
        CFI EndBlock cfiCond38
        CFI EndBlock cfiCond39
        CFI EndBlock cfiCond40
        CFI EndBlock cfiCond41
        CFI EndBlock cfiCond42
        CFI EndBlock cfiCond43
        CFI EndBlock cfiCond44
        CFI EndBlock cfiCond45
        CFI EndBlock cfiPicker46

        RSEG BANKED_CODE:CODE:NOROOT(0)
?Subroutine4:
        CFI Block cfiCond47 Using cfiCommon0
        CFI NoFunction
        CFI Conditional ??CrossCallReturnLabel_10
        CFI R6 load(1, XDATA, add(CFA_XSP16, literal(-23)))
        CFI VB load(1, XDATA, add(CFA_XSP16, literal(-22)))
        CFI V0 load(1, XDATA, add(CFA_XSP16, literal(-21)))
        CFI V1 load(1, XDATA, add(CFA_XSP16, literal(-20)))
        CFI V2 load(1, XDATA, add(CFA_XSP16, literal(-19)))
        CFI V3 load(1, XDATA, add(CFA_XSP16, literal(-18)))
        CFI V4 load(1, XDATA, add(CFA_XSP16, literal(-17)))
        CFI V5 load(1, XDATA, add(CFA_XSP16, literal(-16)))
        CFI V6 load(1, XDATA, add(CFA_XSP16, literal(-15)))
        CFI V7 load(1, XDATA, add(CFA_XSP16, literal(-14)))
        CFI V8 load(1, XDATA, add(CFA_XSP16, literal(-13)))
        CFI V9 load(1, XDATA, add(CFA_XSP16, literal(-12)))
        CFI V10 load(1, XDATA, add(CFA_XSP16, literal(-11)))
        CFI V11 load(1, XDATA, add(CFA_XSP16, literal(-10)))
        CFI V12 load(1, XDATA, add(CFA_XSP16, literal(-9)))
        CFI V13 load(1, XDATA, add(CFA_XSP16, literal(-8)))
        CFI V14 load(1, XDATA, add(CFA_XSP16, literal(-7)))
        CFI R7 load(1, XDATA, add(CFA_XSP16, literal(-6)))
        CFI ?RET_LOW load(1, XDATA, add(CFA_XSP16, literal(-5)))
        CFI ?RET_HIGH load(1, XDATA, add(CFA_XSP16, literal(-4)))
        CFI ?BRET_EXT load(1, XDATA, add(CFA_XSP16, literal(-3)))
        CFI DPL0 load(1, XDATA, add(CFA_XSP16, literal(-2)))
        CFI DPH0 load(1, XDATA, add(CFA_XSP16, literal(-1)))
        CFI CFA_SP SP+0
        CFI CFA_XSP16 add(XSP16, 26)
        CFI Block cfiCond48 Using cfiCommon0
        CFI (cfiCond48) NoFunction
        CFI (cfiCond48) Conditional ??CrossCallReturnLabel_11
        CFI (cfiCond48) R6 load(1, XDATA, add(CFA_XSP16, literal(-23)))
        CFI (cfiCond48) VB load(1, XDATA, add(CFA_XSP16, literal(-22)))
        CFI (cfiCond48) V0 load(1, XDATA, add(CFA_XSP16, literal(-21)))
        CFI (cfiCond48) V1 load(1, XDATA, add(CFA_XSP16, literal(-20)))
        CFI (cfiCond48) V2 load(1, XDATA, add(CFA_XSP16, literal(-19)))
        CFI (cfiCond48) V3 load(1, XDATA, add(CFA_XSP16, literal(-18)))
        CFI (cfiCond48) V4 load(1, XDATA, add(CFA_XSP16, literal(-17)))
        CFI (cfiCond48) V5 load(1, XDATA, add(CFA_XSP16, literal(-16)))
        CFI (cfiCond48) V6 load(1, XDATA, add(CFA_XSP16, literal(-15)))
        CFI (cfiCond48) V7 load(1, XDATA, add(CFA_XSP16, literal(-14)))
        CFI (cfiCond48) V8 load(1, XDATA, add(CFA_XSP16, literal(-13)))
        CFI (cfiCond48) V9 load(1, XDATA, add(CFA_XSP16, literal(-12)))
        CFI (cfiCond48) V10 load(1, XDATA, add(CFA_XSP16, literal(-11)))
        CFI (cfiCond48) V11 load(1, XDATA, add(CFA_XSP16, literal(-10)))
        CFI (cfiCond48) V12 load(1, XDATA, add(CFA_XSP16, literal(-9)))
        CFI (cfiCond48) V13 load(1, XDATA, add(CFA_XSP16, literal(-8)))
        CFI (cfiCond48) V14 load(1, XDATA, add(CFA_XSP16, literal(-7)))
        CFI (cfiCond48) R7 load(1, XDATA, add(CFA_XSP16, literal(-6)))
        CFI (cfiCond48) ?RET_LOW load(1, XDATA, add(CFA_XSP16, literal(-5)))
        CFI (cfiCond48) ?RET_HIGH load(1, XDATA, add(CFA_XSP16, literal(-4)))
        CFI (cfiCond48) ?BRET_EXT load(1, XDATA, add(CFA_XSP16, literal(-3)))
        CFI (cfiCond48) DPL0 load(1, XDATA, add(CFA_XSP16, literal(-2)))
        CFI (cfiCond48) DPH0 load(1, XDATA, add(CFA_XSP16, literal(-1)))
        CFI (cfiCond48) CFA_SP SP+0
        CFI (cfiCond48) CFA_XSP16 add(XSP16, 26)
        CFI Block cfiPicker49 Using cfiCommon1
        CFI (cfiPicker49) NoFunction
        CFI (cfiPicker49) Picker
        LCALL   ?Subroutine7 & 0xFFFF
??CrossCallReturnLabel_14:
        RET
        CFI EndBlock cfiCond47
        CFI EndBlock cfiCond48
        CFI EndBlock cfiPicker49

        RSEG BANKED_CODE:CODE:NOROOT(0)
?Subroutine7:
        CFI Block cfiCond50 Using cfiCommon0
        CFI NoFunction
        CFI Conditional ??CrossCallReturnLabel_14, ??CrossCallReturnLabel_10
        CFI R6 load(1, XDATA, add(CFA_XSP16, literal(-23)))
        CFI VB load(1, XDATA, add(CFA_XSP16, literal(-22)))
        CFI V0 load(1, XDATA, add(CFA_XSP16, literal(-21)))
        CFI V1 load(1, XDATA, add(CFA_XSP16, literal(-20)))
        CFI V2 load(1, XDATA, add(CFA_XSP16, literal(-19)))
        CFI V3 load(1, XDATA, add(CFA_XSP16, literal(-18)))
        CFI V4 load(1, XDATA, add(CFA_XSP16, literal(-17)))
        CFI V5 load(1, XDATA, add(CFA_XSP16, literal(-16)))
        CFI V6 load(1, XDATA, add(CFA_XSP16, literal(-15)))
        CFI V7 load(1, XDATA, add(CFA_XSP16, literal(-14)))
        CFI V8 load(1, XDATA, add(CFA_XSP16, literal(-13)))
        CFI V9 load(1, XDATA, add(CFA_XSP16, literal(-12)))
        CFI V10 load(1, XDATA, add(CFA_XSP16, literal(-11)))
        CFI V11 load(1, XDATA, add(CFA_XSP16, literal(-10)))
        CFI V12 load(1, XDATA, add(CFA_XSP16, literal(-9)))
        CFI V13 load(1, XDATA, add(CFA_XSP16, literal(-8)))
        CFI V14 load(1, XDATA, add(CFA_XSP16, literal(-7)))
        CFI R7 load(1, XDATA, add(CFA_XSP16, literal(-6)))
        CFI ?RET_LOW load(1, XDATA, add(CFA_XSP16, literal(-5)))
        CFI ?RET_HIGH load(1, XDATA, add(CFA_XSP16, literal(-4)))
        CFI ?BRET_EXT load(1, XDATA, add(CFA_XSP16, literal(-3)))
        CFI DPL0 load(1, XDATA, add(CFA_XSP16, literal(-2)))
        CFI DPH0 load(1, XDATA, add(CFA_XSP16, literal(-1)))
        CFI CFA_SP SP+0
        CFI CFA_XSP16 add(XSP16, 26)
        CFI Block cfiCond51 Using cfiCommon0
        CFI (cfiCond51) NoFunction
        CFI (cfiCond51) Conditional ??CrossCallReturnLabel_14, ??CrossCallReturnLabel_11
        CFI (cfiCond51) R6 load(1, XDATA, add(CFA_XSP16, literal(-23)))
        CFI (cfiCond51) VB load(1, XDATA, add(CFA_XSP16, literal(-22)))
        CFI (cfiCond51) V0 load(1, XDATA, add(CFA_XSP16, literal(-21)))
        CFI (cfiCond51) V1 load(1, XDATA, add(CFA_XSP16, literal(-20)))
        CFI (cfiCond51) V2 load(1, XDATA, add(CFA_XSP16, literal(-19)))
        CFI (cfiCond51) V3 load(1, XDATA, add(CFA_XSP16, literal(-18)))
        CFI (cfiCond51) V4 load(1, XDATA, add(CFA_XSP16, literal(-17)))
        CFI (cfiCond51) V5 load(1, XDATA, add(CFA_XSP16, literal(-16)))
        CFI (cfiCond51) V6 load(1, XDATA, add(CFA_XSP16, literal(-15)))
        CFI (cfiCond51) V7 load(1, XDATA, add(CFA_XSP16, literal(-14)))
        CFI (cfiCond51) V8 load(1, XDATA, add(CFA_XSP16, literal(-13)))
        CFI (cfiCond51) V9 load(1, XDATA, add(CFA_XSP16, literal(-12)))
        CFI (cfiCond51) V10 load(1, XDATA, add(CFA_XSP16, literal(-11)))
        CFI (cfiCond51) V11 load(1, XDATA, add(CFA_XSP16, literal(-10)))
        CFI (cfiCond51) V12 load(1, XDATA, add(CFA_XSP16, literal(-9)))
        CFI (cfiCond51) V13 load(1, XDATA, add(CFA_XSP16, literal(-8)))
        CFI (cfiCond51) V14 load(1, XDATA, add(CFA_XSP16, literal(-7)))
        CFI (cfiCond51) R7 load(1, XDATA, add(CFA_XSP16, literal(-6)))
        CFI (cfiCond51) ?RET_LOW load(1, XDATA, add(CFA_XSP16, literal(-5)))
        CFI (cfiCond51) ?RET_HIGH load(1, XDATA, add(CFA_XSP16, literal(-4)))
        CFI (cfiCond51) ?BRET_EXT load(1, XDATA, add(CFA_XSP16, literal(-3)))
        CFI (cfiCond51) DPL0 load(1, XDATA, add(CFA_XSP16, literal(-2)))
        CFI (cfiCond51) DPH0 load(1, XDATA, add(CFA_XSP16, literal(-1)))
        CFI (cfiCond51) CFA_SP SP+0
        CFI (cfiCond51) CFA_XSP16 add(XSP16, 26)
        CFI Block cfiCond52 Using cfiCommon0
        CFI (cfiCond52) NoFunction
        CFI (cfiCond52) Conditional ??CrossCallReturnLabel_15, ??CrossCallReturnLabel_6
        CFI (cfiCond52) R6 load(1, XDATA, add(CFA_XSP16, literal(-23)))
        CFI (cfiCond52) VB load(1, XDATA, add(CFA_XSP16, literal(-22)))
        CFI (cfiCond52) V0 load(1, XDATA, add(CFA_XSP16, literal(-21)))
        CFI (cfiCond52) V1 load(1, XDATA, add(CFA_XSP16, literal(-20)))
        CFI (cfiCond52) V2 load(1, XDATA, add(CFA_XSP16, literal(-19)))
        CFI (cfiCond52) V3 load(1, XDATA, add(CFA_XSP16, literal(-18)))
        CFI (cfiCond52) V4 load(1, XDATA, add(CFA_XSP16, literal(-17)))
        CFI (cfiCond52) V5 load(1, XDATA, add(CFA_XSP16, literal(-16)))
        CFI (cfiCond52) V6 load(1, XDATA, add(CFA_XSP16, literal(-15)))
        CFI (cfiCond52) V7 load(1, XDATA, add(CFA_XSP16, literal(-14)))
        CFI (cfiCond52) V8 load(1, XDATA, add(CFA_XSP16, literal(-13)))
        CFI (cfiCond52) V9 load(1, XDATA, add(CFA_XSP16, literal(-12)))
        CFI (cfiCond52) V10 load(1, XDATA, add(CFA_XSP16, literal(-11)))
        CFI (cfiCond52) V11 load(1, XDATA, add(CFA_XSP16, literal(-10)))
        CFI (cfiCond52) V12 load(1, XDATA, add(CFA_XSP16, literal(-9)))
        CFI (cfiCond52) V13 load(1, XDATA, add(CFA_XSP16, literal(-8)))
        CFI (cfiCond52) V14 load(1, XDATA, add(CFA_XSP16, literal(-7)))
        CFI (cfiCond52) R7 load(1, XDATA, add(CFA_XSP16, literal(-6)))
        CFI (cfiCond52) ?RET_LOW load(1, XDATA, add(CFA_XSP16, literal(-5)))
        CFI (cfiCond52) ?RET_HIGH load(1, XDATA, add(CFA_XSP16, literal(-4)))
        CFI (cfiCond52) ?BRET_EXT load(1, XDATA, add(CFA_XSP16, literal(-3)))
        CFI (cfiCond52) DPL0 load(1, XDATA, add(CFA_XSP16, literal(-2)))
        CFI (cfiCond52) DPH0 load(1, XDATA, add(CFA_XSP16, literal(-1)))
        CFI (cfiCond52) CFA_SP SP+0
        CFI (cfiCond52) CFA_XSP16 add(XSP16, 26)
        CFI Block cfiCond53 Using cfiCommon0
        CFI (cfiCond53) NoFunction
        CFI (cfiCond53) Conditional ??CrossCallReturnLabel_15, ??CrossCallReturnLabel_7
        CFI (cfiCond53) R6 load(1, XDATA, add(CFA_XSP16, literal(-23)))
        CFI (cfiCond53) VB load(1, XDATA, add(CFA_XSP16, literal(-22)))
        CFI (cfiCond53) V0 load(1, XDATA, add(CFA_XSP16, literal(-21)))
        CFI (cfiCond53) V1 load(1, XDATA, add(CFA_XSP16, literal(-20)))
        CFI (cfiCond53) V2 load(1, XDATA, add(CFA_XSP16, literal(-19)))
        CFI (cfiCond53) V3 load(1, XDATA, add(CFA_XSP16, literal(-18)))
        CFI (cfiCond53) V4 load(1, XDATA, add(CFA_XSP16, literal(-17)))
        CFI (cfiCond53) V5 load(1, XDATA, add(CFA_XSP16, literal(-16)))
        CFI (cfiCond53) V6 load(1, XDATA, add(CFA_XSP16, literal(-15)))
        CFI (cfiCond53) V7 load(1, XDATA, add(CFA_XSP16, literal(-14)))
        CFI (cfiCond53) V8 load(1, XDATA, add(CFA_XSP16, literal(-13)))
        CFI (cfiCond53) V9 load(1, XDATA, add(CFA_XSP16, literal(-12)))
        CFI (cfiCond53) V10 load(1, XDATA, add(CFA_XSP16, literal(-11)))
        CFI (cfiCond53) V11 load(1, XDATA, add(CFA_XSP16, literal(-10)))
        CFI (cfiCond53) V12 load(1, XDATA, add(CFA_XSP16, literal(-9)))
        CFI (cfiCond53) V13 load(1, XDATA, add(CFA_XSP16, literal(-8)))
        CFI (cfiCond53) V14 load(1, XDATA, add(CFA_XSP16, literal(-7)))
        CFI (cfiCond53) R7 load(1, XDATA, add(CFA_XSP16, literal(-6)))
        CFI (cfiCond53) ?RET_LOW load(1, XDATA, add(CFA_XSP16, literal(-5)))
        CFI (cfiCond53) ?RET_HIGH load(1, XDATA, add(CFA_XSP16, literal(-4)))
        CFI (cfiCond53) ?BRET_EXT load(1, XDATA, add(CFA_XSP16, literal(-3)))
        CFI (cfiCond53) DPL0 load(1, XDATA, add(CFA_XSP16, literal(-2)))
        CFI (cfiCond53) DPH0 load(1, XDATA, add(CFA_XSP16, literal(-1)))
        CFI (cfiCond53) CFA_SP SP+0
        CFI (cfiCond53) CFA_XSP16 add(XSP16, 26)
        CFI Block cfiPicker54 Using cfiCommon1
        CFI (cfiPicker54) NoFunction
        CFI (cfiPicker54) Picker
        MOVX    @DPTR,A
        MOV     DPTR,#CO2
        MOVX    A,@DPTR
        MOV     R0,A
        INC     DPTR
        MOVX    A,@DPTR
        MOV     R1,A
        RET
        CFI EndBlock cfiCond50
        CFI EndBlock cfiCond51
        CFI EndBlock cfiCond52
        CFI EndBlock cfiCond53
        CFI EndBlock cfiPicker54

        RSEG BANKED_CODE:CODE:NOROOT(0)
?Subroutine3:
        CFI Block cfiCond55 Using cfiCommon0
        CFI NoFunction
        CFI Conditional ??CrossCallReturnLabel_8
        CFI R6 load(1, XDATA, add(CFA_XSP16, literal(-23)))
        CFI VB load(1, XDATA, add(CFA_XSP16, literal(-22)))
        CFI V0 load(1, XDATA, add(CFA_XSP16, literal(-21)))
        CFI V1 load(1, XDATA, add(CFA_XSP16, literal(-20)))
        CFI V2 load(1, XDATA, add(CFA_XSP16, literal(-19)))
        CFI V3 load(1, XDATA, add(CFA_XSP16, literal(-18)))
        CFI V4 load(1, XDATA, add(CFA_XSP16, literal(-17)))
        CFI V5 load(1, XDATA, add(CFA_XSP16, literal(-16)))
        CFI V6 load(1, XDATA, add(CFA_XSP16, literal(-15)))
        CFI V7 load(1, XDATA, add(CFA_XSP16, literal(-14)))
        CFI V8 load(1, XDATA, add(CFA_XSP16, literal(-13)))
        CFI V9 load(1, XDATA, add(CFA_XSP16, literal(-12)))
        CFI V10 load(1, XDATA, add(CFA_XSP16, literal(-11)))
        CFI V11 load(1, XDATA, add(CFA_XSP16, literal(-10)))
        CFI V12 load(1, XDATA, add(CFA_XSP16, literal(-9)))
        CFI V13 load(1, XDATA, add(CFA_XSP16, literal(-8)))
        CFI V14 load(1, XDATA, add(CFA_XSP16, literal(-7)))
        CFI R7 load(1, XDATA, add(CFA_XSP16, literal(-6)))
        CFI ?RET_LOW load(1, XDATA, add(CFA_XSP16, literal(-5)))
        CFI ?RET_HIGH load(1, XDATA, add(CFA_XSP16, literal(-4)))
        CFI ?BRET_EXT load(1, XDATA, add(CFA_XSP16, literal(-3)))
        CFI DPL0 load(1, XDATA, add(CFA_XSP16, literal(-2)))
        CFI DPH0 load(1, XDATA, add(CFA_XSP16, literal(-1)))
        CFI CFA_SP SP+0
        CFI CFA_XSP16 add(XSP16, 26)
        CFI Block cfiCond56 Using cfiCommon0
        CFI (cfiCond56) NoFunction
        CFI (cfiCond56) Conditional ??CrossCallReturnLabel_9
        CFI (cfiCond56) R6 load(1, XDATA, add(CFA_XSP16, literal(-23)))
        CFI (cfiCond56) VB load(1, XDATA, add(CFA_XSP16, literal(-22)))
        CFI (cfiCond56) V0 load(1, XDATA, add(CFA_XSP16, literal(-21)))
        CFI (cfiCond56) V1 load(1, XDATA, add(CFA_XSP16, literal(-20)))
        CFI (cfiCond56) V2 load(1, XDATA, add(CFA_XSP16, literal(-19)))
        CFI (cfiCond56) V3 load(1, XDATA, add(CFA_XSP16, literal(-18)))
        CFI (cfiCond56) V4 load(1, XDATA, add(CFA_XSP16, literal(-17)))
        CFI (cfiCond56) V5 load(1, XDATA, add(CFA_XSP16, literal(-16)))
        CFI (cfiCond56) V6 load(1, XDATA, add(CFA_XSP16, literal(-15)))
        CFI (cfiCond56) V7 load(1, XDATA, add(CFA_XSP16, literal(-14)))
        CFI (cfiCond56) V8 load(1, XDATA, add(CFA_XSP16, literal(-13)))
        CFI (cfiCond56) V9 load(1, XDATA, add(CFA_XSP16, literal(-12)))
        CFI (cfiCond56) V10 load(1, XDATA, add(CFA_XSP16, literal(-11)))
        CFI (cfiCond56) V11 load(1, XDATA, add(CFA_XSP16, literal(-10)))
        CFI (cfiCond56) V12 load(1, XDATA, add(CFA_XSP16, literal(-9)))
        CFI (cfiCond56) V13 load(1, XDATA, add(CFA_XSP16, literal(-8)))
        CFI (cfiCond56) V14 load(1, XDATA, add(CFA_XSP16, literal(-7)))
        CFI (cfiCond56) R7 load(1, XDATA, add(CFA_XSP16, literal(-6)))
        CFI (cfiCond56) ?RET_LOW load(1, XDATA, add(CFA_XSP16, literal(-5)))
        CFI (cfiCond56) ?RET_HIGH load(1, XDATA, add(CFA_XSP16, literal(-4)))
        CFI (cfiCond56) ?BRET_EXT load(1, XDATA, add(CFA_XSP16, literal(-3)))
        CFI (cfiCond56) DPL0 load(1, XDATA, add(CFA_XSP16, literal(-2)))
        CFI (cfiCond56) DPH0 load(1, XDATA, add(CFA_XSP16, literal(-1)))
        CFI (cfiCond56) CFA_SP SP+0
        CFI (cfiCond56) CFA_XSP16 add(XSP16, 26)
        CFI Block cfiPicker57 Using cfiCommon1
        CFI (cfiPicker57) NoFunction
        CFI (cfiPicker57) Picker
        MOVX    @DPTR,A
        MOV     ?V0 + 0,?V0 + 4
        MOV     ?V0 + 1,?V0 + 5
        MOV     ?V0 + 2,?V0 + 6
        MOV     ?V0 + 3,?V0 + 7
        RET
        CFI EndBlock cfiCond55
        CFI EndBlock cfiCond56
        CFI EndBlock cfiPicker57

        RSEG BANKED_CODE:CODE:NOROOT(0)
?Subroutine2:
        CFI Block cfiCond58 Using cfiCommon0
        CFI NoFunction
        CFI Conditional ??CrossCallReturnLabel_6
        CFI R6 load(1, XDATA, add(CFA_XSP16, literal(-23)))
        CFI VB load(1, XDATA, add(CFA_XSP16, literal(-22)))
        CFI V0 load(1, XDATA, add(CFA_XSP16, literal(-21)))
        CFI V1 load(1, XDATA, add(CFA_XSP16, literal(-20)))
        CFI V2 load(1, XDATA, add(CFA_XSP16, literal(-19)))
        CFI V3 load(1, XDATA, add(CFA_XSP16, literal(-18)))
        CFI V4 load(1, XDATA, add(CFA_XSP16, literal(-17)))
        CFI V5 load(1, XDATA, add(CFA_XSP16, literal(-16)))
        CFI V6 load(1, XDATA, add(CFA_XSP16, literal(-15)))
        CFI V7 load(1, XDATA, add(CFA_XSP16, literal(-14)))
        CFI V8 load(1, XDATA, add(CFA_XSP16, literal(-13)))
        CFI V9 load(1, XDATA, add(CFA_XSP16, literal(-12)))
        CFI V10 load(1, XDATA, add(CFA_XSP16, literal(-11)))
        CFI V11 load(1, XDATA, add(CFA_XSP16, literal(-10)))
        CFI V12 load(1, XDATA, add(CFA_XSP16, literal(-9)))
        CFI V13 load(1, XDATA, add(CFA_XSP16, literal(-8)))
        CFI V14 load(1, XDATA, add(CFA_XSP16, literal(-7)))
        CFI R7 load(1, XDATA, add(CFA_XSP16, literal(-6)))
        CFI ?RET_LOW load(1, XDATA, add(CFA_XSP16, literal(-5)))
        CFI ?RET_HIGH load(1, XDATA, add(CFA_XSP16, literal(-4)))
        CFI ?BRET_EXT load(1, XDATA, add(CFA_XSP16, literal(-3)))
        CFI DPL0 load(1, XDATA, add(CFA_XSP16, literal(-2)))
        CFI DPH0 load(1, XDATA, add(CFA_XSP16, literal(-1)))
        CFI CFA_SP SP+0
        CFI CFA_XSP16 add(XSP16, 26)
        CFI Block cfiCond59 Using cfiCommon0
        CFI (cfiCond59) NoFunction
        CFI (cfiCond59) Conditional ??CrossCallReturnLabel_7
        CFI (cfiCond59) R6 load(1, XDATA, add(CFA_XSP16, literal(-23)))
        CFI (cfiCond59) VB load(1, XDATA, add(CFA_XSP16, literal(-22)))
        CFI (cfiCond59) V0 load(1, XDATA, add(CFA_XSP16, literal(-21)))
        CFI (cfiCond59) V1 load(1, XDATA, add(CFA_XSP16, literal(-20)))
        CFI (cfiCond59) V2 load(1, XDATA, add(CFA_XSP16, literal(-19)))
        CFI (cfiCond59) V3 load(1, XDATA, add(CFA_XSP16, literal(-18)))
        CFI (cfiCond59) V4 load(1, XDATA, add(CFA_XSP16, literal(-17)))
        CFI (cfiCond59) V5 load(1, XDATA, add(CFA_XSP16, literal(-16)))
        CFI (cfiCond59) V6 load(1, XDATA, add(CFA_XSP16, literal(-15)))
        CFI (cfiCond59) V7 load(1, XDATA, add(CFA_XSP16, literal(-14)))
        CFI (cfiCond59) V8 load(1, XDATA, add(CFA_XSP16, literal(-13)))
        CFI (cfiCond59) V9 load(1, XDATA, add(CFA_XSP16, literal(-12)))
        CFI (cfiCond59) V10 load(1, XDATA, add(CFA_XSP16, literal(-11)))
        CFI (cfiCond59) V11 load(1, XDATA, add(CFA_XSP16, literal(-10)))
        CFI (cfiCond59) V12 load(1, XDATA, add(CFA_XSP16, literal(-9)))
        CFI (cfiCond59) V13 load(1, XDATA, add(CFA_XSP16, literal(-8)))
        CFI (cfiCond59) V14 load(1, XDATA, add(CFA_XSP16, literal(-7)))
        CFI (cfiCond59) R7 load(1, XDATA, add(CFA_XSP16, literal(-6)))
        CFI (cfiCond59) ?RET_LOW load(1, XDATA, add(CFA_XSP16, literal(-5)))
        CFI (cfiCond59) ?RET_HIGH load(1, XDATA, add(CFA_XSP16, literal(-4)))
        CFI (cfiCond59) ?BRET_EXT load(1, XDATA, add(CFA_XSP16, literal(-3)))
        CFI (cfiCond59) DPL0 load(1, XDATA, add(CFA_XSP16, literal(-2)))
        CFI (cfiCond59) DPH0 load(1, XDATA, add(CFA_XSP16, literal(-1)))
        CFI (cfiCond59) CFA_SP SP+0
        CFI (cfiCond59) CFA_XSP16 add(XSP16, 26)
        CFI Block cfiPicker60 Using cfiCommon1
        CFI (cfiPicker60) NoFunction
        CFI (cfiPicker60) Picker
        LCALL   ?Subroutine7 & 0xFFFF
??CrossCallReturnLabel_15:
        MOV     R2,#0xa
        MOV     R3,#0x0
        RET
        CFI EndBlock cfiCond58
        CFI EndBlock cfiCond59
        CFI EndBlock cfiPicker60

        RSEG BANKED_CODE:CODE:NOROOT(0)
?Subroutine1:
        CFI Block cfiCond61 Using cfiCommon0
        CFI NoFunction
        CFI Conditional ??CrossCallReturnLabel_3
        CFI R6 load(1, XDATA, add(CFA_XSP16, literal(-23)))
        CFI VB load(1, XDATA, add(CFA_XSP16, literal(-22)))
        CFI V0 load(1, XDATA, add(CFA_XSP16, literal(-21)))
        CFI V1 load(1, XDATA, add(CFA_XSP16, literal(-20)))
        CFI V2 load(1, XDATA, add(CFA_XSP16, literal(-19)))
        CFI V3 load(1, XDATA, add(CFA_XSP16, literal(-18)))
        CFI V4 load(1, XDATA, add(CFA_XSP16, literal(-17)))
        CFI V5 load(1, XDATA, add(CFA_XSP16, literal(-16)))
        CFI V6 load(1, XDATA, add(CFA_XSP16, literal(-15)))
        CFI V7 load(1, XDATA, add(CFA_XSP16, literal(-14)))
        CFI V8 load(1, XDATA, add(CFA_XSP16, literal(-13)))
        CFI V9 load(1, XDATA, add(CFA_XSP16, literal(-12)))
        CFI V10 load(1, XDATA, add(CFA_XSP16, literal(-11)))
        CFI V11 load(1, XDATA, add(CFA_XSP16, literal(-10)))
        CFI V12 load(1, XDATA, add(CFA_XSP16, literal(-9)))
        CFI V13 load(1, XDATA, add(CFA_XSP16, literal(-8)))
        CFI V14 load(1, XDATA, add(CFA_XSP16, literal(-7)))
        CFI R7 load(1, XDATA, add(CFA_XSP16, literal(-6)))
        CFI ?RET_LOW load(1, XDATA, add(CFA_XSP16, literal(-5)))
        CFI ?RET_HIGH load(1, XDATA, add(CFA_XSP16, literal(-4)))
        CFI ?BRET_EXT load(1, XDATA, add(CFA_XSP16, literal(-3)))
        CFI DPL0 load(1, XDATA, add(CFA_XSP16, literal(-2)))
        CFI DPH0 load(1, XDATA, add(CFA_XSP16, literal(-1)))
        CFI CFA_SP SP+0
        CFI CFA_XSP16 add(XSP16, 26)
        CFI Block cfiCond62 Using cfiCommon0
        CFI (cfiCond62) NoFunction
        CFI (cfiCond62) Conditional ??CrossCallReturnLabel_4
        CFI (cfiCond62) R6 load(1, XDATA, add(CFA_XSP16, literal(-23)))
        CFI (cfiCond62) VB load(1, XDATA, add(CFA_XSP16, literal(-22)))
        CFI (cfiCond62) V0 load(1, XDATA, add(CFA_XSP16, literal(-21)))
        CFI (cfiCond62) V1 load(1, XDATA, add(CFA_XSP16, literal(-20)))
        CFI (cfiCond62) V2 load(1, XDATA, add(CFA_XSP16, literal(-19)))
        CFI (cfiCond62) V3 load(1, XDATA, add(CFA_XSP16, literal(-18)))
        CFI (cfiCond62) V4 load(1, XDATA, add(CFA_XSP16, literal(-17)))
        CFI (cfiCond62) V5 load(1, XDATA, add(CFA_XSP16, literal(-16)))
        CFI (cfiCond62) V6 load(1, XDATA, add(CFA_XSP16, literal(-15)))
        CFI (cfiCond62) V7 load(1, XDATA, add(CFA_XSP16, literal(-14)))
        CFI (cfiCond62) V8 load(1, XDATA, add(CFA_XSP16, literal(-13)))
        CFI (cfiCond62) V9 load(1, XDATA, add(CFA_XSP16, literal(-12)))
        CFI (cfiCond62) V10 load(1, XDATA, add(CFA_XSP16, literal(-11)))
        CFI (cfiCond62) V11 load(1, XDATA, add(CFA_XSP16, literal(-10)))
        CFI (cfiCond62) V12 load(1, XDATA, add(CFA_XSP16, literal(-9)))
        CFI (cfiCond62) V13 load(1, XDATA, add(CFA_XSP16, literal(-8)))
        CFI (cfiCond62) V14 load(1, XDATA, add(CFA_XSP16, literal(-7)))
        CFI (cfiCond62) R7 load(1, XDATA, add(CFA_XSP16, literal(-6)))
        CFI (cfiCond62) ?RET_LOW load(1, XDATA, add(CFA_XSP16, literal(-5)))
        CFI (cfiCond62) ?RET_HIGH load(1, XDATA, add(CFA_XSP16, literal(-4)))
        CFI (cfiCond62) ?BRET_EXT load(1, XDATA, add(CFA_XSP16, literal(-3)))
        CFI (cfiCond62) DPL0 load(1, XDATA, add(CFA_XSP16, literal(-2)))
        CFI (cfiCond62) DPH0 load(1, XDATA, add(CFA_XSP16, literal(-1)))
        CFI (cfiCond62) CFA_SP SP+0
        CFI (cfiCond62) CFA_XSP16 add(XSP16, 26)
        CFI Block cfiCond63 Using cfiCommon0
        CFI (cfiCond63) NoFunction
        CFI (cfiCond63) Conditional ??CrossCallReturnLabel_5
        CFI (cfiCond63) R6 load(1, XDATA, add(CFA_XSP16, literal(-23)))
        CFI (cfiCond63) VB load(1, XDATA, add(CFA_XSP16, literal(-22)))
        CFI (cfiCond63) V0 load(1, XDATA, add(CFA_XSP16, literal(-21)))
        CFI (cfiCond63) V1 load(1, XDATA, add(CFA_XSP16, literal(-20)))
        CFI (cfiCond63) V2 load(1, XDATA, add(CFA_XSP16, literal(-19)))
        CFI (cfiCond63) V3 load(1, XDATA, add(CFA_XSP16, literal(-18)))
        CFI (cfiCond63) V4 load(1, XDATA, add(CFA_XSP16, literal(-17)))
        CFI (cfiCond63) V5 load(1, XDATA, add(CFA_XSP16, literal(-16)))
        CFI (cfiCond63) V6 load(1, XDATA, add(CFA_XSP16, literal(-15)))
        CFI (cfiCond63) V7 load(1, XDATA, add(CFA_XSP16, literal(-14)))
        CFI (cfiCond63) V8 load(1, XDATA, add(CFA_XSP16, literal(-13)))
        CFI (cfiCond63) V9 load(1, XDATA, add(CFA_XSP16, literal(-12)))
        CFI (cfiCond63) V10 load(1, XDATA, add(CFA_XSP16, literal(-11)))
        CFI (cfiCond63) V11 load(1, XDATA, add(CFA_XSP16, literal(-10)))
        CFI (cfiCond63) V12 load(1, XDATA, add(CFA_XSP16, literal(-9)))
        CFI (cfiCond63) V13 load(1, XDATA, add(CFA_XSP16, literal(-8)))
        CFI (cfiCond63) V14 load(1, XDATA, add(CFA_XSP16, literal(-7)))
        CFI (cfiCond63) R7 load(1, XDATA, add(CFA_XSP16, literal(-6)))
        CFI (cfiCond63) ?RET_LOW load(1, XDATA, add(CFA_XSP16, literal(-5)))
        CFI (cfiCond63) ?RET_HIGH load(1, XDATA, add(CFA_XSP16, literal(-4)))
        CFI (cfiCond63) ?BRET_EXT load(1, XDATA, add(CFA_XSP16, literal(-3)))
        CFI (cfiCond63) DPL0 load(1, XDATA, add(CFA_XSP16, literal(-2)))
        CFI (cfiCond63) DPH0 load(1, XDATA, add(CFA_XSP16, literal(-1)))
        CFI (cfiCond63) CFA_SP SP+0
        CFI (cfiCond63) CFA_XSP16 add(XSP16, 26)
        CFI Block cfiPicker64 Using cfiCommon1
        CFI (cfiPicker64) NoFunction
        CFI (cfiPicker64) Picker
        MOV     R2,#strTemp & 0xff
        MOV     R3,#(strTemp >> 8) & 0xff
        LCALL   ??HalLcdWriteString?relay
        ; Setup parameters for call to function osal_memset
        ; Setup parameters for call to function osal_memset
        ; Setup parameters for call to function osal_memset
        MOV     R4,#0x16
        MOV     R5,#0x0
        MOV     R1,#0x0
        MOV     R2,#strTemp & 0xff
        MOV     R3,#(strTemp >> 8) & 0xff
        LCALL   ??osal_memset?relay
        RET
        CFI EndBlock cfiCond61
        CFI EndBlock cfiCond62
        CFI EndBlock cfiCond63
        CFI EndBlock cfiPicker64

        RSEG BANKED_CODE:CODE:NOROOT(0)
//  436 void callback(uint8 port, uint8 event)
callback:
        CFI Block cfiBlock65 Using cfiCommon0
        CFI Function callback
        CODE
//  437 {
        ; Saved register size: 0
        ; Auto size: 0
//  438 }
        LJMP    ?BRET
        CFI EndBlock cfiBlock65

        RSEG BANKED_CODE:CODE:NOROOT(0)
//  439 int get_CO2_Message( float *pcurve )
get_CO2_Message:
        CFI Block cfiBlock66 Using cfiCommon0
        CFI Function get_CO2_Message
        CODE
//  440 {
        FUNCALL get_CO2_Message, ADCinital
        LOCFRAME ISTACK, 0, STACK
        LOCFRAME PSTACK, 0, STACK
        LOCFRAME XSTACK, 16, STACK
        LOCFRAME IOVERLAY, 0, STATIC
        LOCFRAME DOVERLAY, 0, STATIC
        ARGFRAME ISTACK, 0, STACK
        ARGFRAME PSTACK, 0, STACK
        ARGFRAME XSTACK, 16, STACK
        ARGFRAME IOVERLAY, 0, STATIC
        ARGFRAME DOVERLAY, 0, STATIC
        FUNCALL get_CO2_Message, pow
        LOCFRAME ISTACK, 0, STACK
        LOCFRAME PSTACK, 0, STACK
        LOCFRAME XSTACK, 20, STACK
        LOCFRAME IOVERLAY, 0, STATIC
        LOCFRAME DOVERLAY, 0, STATIC
        ARGFRAME ISTACK, 0, STACK
        ARGFRAME PSTACK, 0, STACK
        ARGFRAME XSTACK, 20, STACK
        ARGFRAME IOVERLAY, 0, STATIC
        ARGFRAME DOVERLAY, 0, STATIC
        MOV     A,#-0x10
        LCALL   ?BANKED_ENTER_XDATA
        CFI DPH0 load(1, XDATA, add(CFA_XSP16, literal(-1)))
        CFI DPL0 load(1, XDATA, add(CFA_XSP16, literal(-2)))
        CFI ?BRET_EXT load(1, XDATA, add(CFA_XSP16, literal(-3)))
        CFI ?RET_HIGH load(1, XDATA, add(CFA_XSP16, literal(-4)))
        CFI ?RET_LOW load(1, XDATA, add(CFA_XSP16, literal(-5)))
        CFI R7 load(1, XDATA, add(CFA_XSP16, literal(-6)))
        CFI V7 load(1, XDATA, add(CFA_XSP16, literal(-7)))
        CFI V6 load(1, XDATA, add(CFA_XSP16, literal(-8)))
        CFI V5 load(1, XDATA, add(CFA_XSP16, literal(-9)))
        CFI V4 load(1, XDATA, add(CFA_XSP16, literal(-10)))
        CFI V3 load(1, XDATA, add(CFA_XSP16, literal(-11)))
        CFI V2 load(1, XDATA, add(CFA_XSP16, literal(-12)))
        CFI V1 load(1, XDATA, add(CFA_XSP16, literal(-13)))
        CFI V0 load(1, XDATA, add(CFA_XSP16, literal(-14)))
        CFI VB load(1, XDATA, add(CFA_XSP16, literal(-15)))
        CFI R6 load(1, XDATA, add(CFA_XSP16, literal(-16)))
        CFI CFA_SP SP+0
        CFI CFA_XSP16 add(XSP16, 16)
        ; Saved register size: 16
        ; Auto size: 0
        MOV     A,R2
        MOV     R6,A
        MOV     A,R3
        MOV     R7,A
//  441  
//  442   unsigned short  NUM;
//  443   
//  444    while ( !ADCIF ) ;
??get_CO2_Message_0:
        MOV     C,0x88.5
        JNC     ??get_CO2_Message_0
//  445         
//  446    NUM = ADCL;
        MOV     A,0xba
        MOV     ?V0 + 0,A
//  447    NUM |= ((uint16)ADCH) << 8 ;//这里注意一下
//  448    NUM >>= 4;
        MOV     A,0xbb
        MOV     R1,A
        MOV     A,?V0 + 0
        MOV     ?V0 + 2,A
        MOV     A,R1
        MOV     ?V0 + 3,A
        MOV     A,#0x4
        MOV     R0,#?V0 + 2
        LCALL   ?US_SHR
        MOV     ?V0 + 0,?V0 + 2
        MOV     ?V0 + 1,?V0 + 3
//  449   
//  450   ADCinital();
        ; Setup parameters for call to function ADCinital
        LCALL   ??ADCinital?relay
//  451   if (NUM&0x8000) NUM=0;
//  452   if (NUM>4000) NUM=0;
        CLR     C
        MOV     A,?V0 + 0
        SUBB    A,#-0x5f
        MOV     A,?V0 + 1
        SUBB    A,#0xf
        JC      ??get_CO2_Message_1
        MOV     ?V0 + 0,#0x0
        MOV     ?V0 + 1,#0x0
//  453   ADC=(float)((float)NUM*3.30/2048); 
//  454   ADC = ADC / 4.52;
??get_CO2_Message_1:
        CLR     A
        MOV     ?V0 + 2,A
        MOV     ?V0 + 3,A
        MOV     R0,#?V0 + 0
        LCALL   ?UL_TO_FLT
        MOV     DPTR,#__Constant_40533333
        MOV     R0,#?V0 + 4
        LCALL   ?L_MOV_X
        MOV     R0,#?V0 + 0
        MOV     R1,#?V0 + 4
        LCALL   ?FLT_MUL
        MOV     DPTR,#__Constant_4610a3d7
        MOV     R0,#?V0 + 4
        LCALL   ?L_MOV_X
        MOV     R0,#?V0 + 0
        MOV     R1,#?V0 + 4
        LCALL   ?FLT_DIV
        MOV     DPTR,#ADC
        MOV     R0,#?V0 + 0
        LCALL   ?L_MOV_TO_X
//  455   if (ADC > ZERO_POINT_VOLTAGE || ADC < MAX_POINT_VOLTAGE ) {
        MOV     DPTR,#ADC
        MOV     R0,#?V0 + 0
        LCALL   ?L_MOV_X
        MOV     DPTR,#__Constant_3ea5e355
        MOV     R0,#?V0 + 4
        LCALL   ?L_MOV_X
        MOV     R0,#?V0 + 0
        MOV     R1,#?V0 + 4
        LCALL   ?FLT_GE
        JC      ??get_CO2_Message_2
        MOV     DPTR,#ADC
        MOV     R0,#?V0 + 0
        LCALL   ?L_MOV_X
        MOV     DPTR,#__Constant_3e87ae14
        MOV     R0,#?V0 + 4
        LCALL   ?L_MOV_X
        MOV     R0,#?V0 + 0
        MOV     R1,#?V0 + 4
        LCALL   ?FLT_LT
        JNC     ??get_CO2_Message_3
//  456     return -1;
??get_CO2_Message_2:
        MOV     R2,#-0x1
        MOV     R3,#-0x1
        SJMP    ??get_CO2_Message_4
//  457   } else {
//  458     return pow(10, (ADC - pcurve[1]) / pcurve[2] + pcurve[0]);
??get_CO2_Message_3:
        ; Setup parameters for call to function pow
        MOV     DPTR,#ADC
        MOV     R0,#?V0 + 0
        LCALL   ?L_MOV_X
        MOV     DPL,R6
        MOV     DPH,R7
        INC     DPTR
        INC     DPTR
        INC     DPTR
        INC     DPTR
        MOV     R0,#?V0 + 4
        LCALL   ?L_MOV_X
        MOV     R0,#?V0 + 0
        MOV     R1,#?V0 + 4
        LCALL   ?FLT_SUB
        MOV     DPL,R6
        MOV     DPH,R7
        INC     DPTR
        INC     DPTR
        INC     DPTR
        INC     DPTR
        INC     DPTR
        INC     DPTR
        INC     DPTR
        INC     DPTR
        MOV     R0,#?V0 + 4
        LCALL   ?L_MOV_X
        MOV     R0,#?V0 + 0
        MOV     R1,#?V0 + 4
        LCALL   ?FLT_DIV
        MOV     DPL,R6
        MOV     DPH,R7
        MOV     R0,#?V0 + 4
        LCALL   ?L_MOV_X
        MOV     R0,#?V0 + 0
        MOV     R1,#?V0 + 4
        LCALL   ?FLT_ADD
        MOV     R0,#?V0 + 0
        LCALL   ?PUSH_XSTACK_I_FOUR
        CFI CFA_XSP16 add(XSP16, 20)
        MOV     DPTR,#__Constant_41200000
        LCALL   ?XLOAD_R2345
        LCALL   ??pow?relay
        MOV     A,#0x4
        LCALL   ?DEALLOC_XSTACK8
        CFI CFA_XSP16 add(XSP16, 16)
        LCALL   ?R2345_FLT_TO_L
        MOV     R2,?V0 + 0
        MOV     R3,?V0 + 1
??get_CO2_Message_4:
        MOV     R7,#0x8
        LJMP    ?BANKED_LEAVE_XDATA
        CFI EndBlock cfiBlock66
        REQUIRE _A_TCON
        REQUIRE ADCL
        REQUIRE ADCH
//  459     ADC = 0;
//  460   }
//  461                                      
//  462 }
//  463 

        RSEG BANKED_CODE:CODE:NOROOT(0)
//  464 void ADCinital(void)
ADCinital:
        CFI Block cfiBlock67 Using cfiCommon0
        CFI Function ADCinital
        CODE
//  465 {
        ; Saved register size: 0
        ; Auto size: 0
//  466   ADCH&=0X00;//清EOC标志
        MOV     A,0xbb
        MOV     0xbb,#0x0
//  467   ADCCFG|=0X40;//p0.6配置为模拟口
        ORL     0xf2,#0x40
//  468   ADCCON3=0XB6;//单次转换，参考电压为电源电压，对P0.6采样，精度12位            
        MOV     0xb6,#-0x4a
//  469   ADCCON1=0X30;//停止AD
        MOV     0xb4,#0x30
//  470   ADCCON1|=0X40;//开始AD
        ORL     0xb4,#0x40
//  471 }
        LJMP    ?BRET
        CFI EndBlock cfiBlock67
        REQUIRE ADCH
        REQUIRE ADCCFG
        REQUIRE ADCCON3
        REQUIRE ADCCON1

        RSEG XDATA_ID:CODE:NOROOT(0)
`?<Initializer for CO2Curve>`:
        DATA32
        DD 4026872BH
        DD 3EA5E354H
        DD 0BD2CDD35H

        RSEG BANK_RELAYS:CODE:REORDER:NOROOT(0)
??SampleApp_Init?relay:
        LCALL   ?BDISPATCH
        DATA
        DC24    SampleApp_Init

        RSEG BANK_RELAYS:CODE:REORDER:NOROOT(0)
??SampleApp_ProcessEvent?relay:
        LCALL   ?BDISPATCH
        DATA
        DC24    SampleApp_ProcessEvent

        RSEG BANK_RELAYS:CODE:REORDER:NOROOT(0)
??SampleApp_HandleKeys?relay:
        LCALL   ?BDISPATCH
        DATA
        DC24    SampleApp_HandleKeys

        RSEG BANK_RELAYS:CODE:REORDER:NOROOT(0)
??SampleApp_MessageMSGCB?relay:
        LCALL   ?BDISPATCH
        DATA
        DC24    SampleApp_MessageMSGCB

        RSEG BANK_RELAYS:CODE:REORDER:NOROOT(0)
??SampleApp_Send_P2P_Message?relay:
        LCALL   ?BDISPATCH
        DATA
        DC24    SampleApp_Send_P2P_Message

        RSEG BANK_RELAYS:CODE:REORDER:NOROOT(0)
??callback?relay:
        LCALL   ?BDISPATCH
        DATA
        DC24    callback

        RSEG BANK_RELAYS:CODE:REORDER:NOROOT(0)
??get_CO2_Message?relay:
        LCALL   ?BDISPATCH
        DATA
        DC24    get_CO2_Message

        RSEG BANK_RELAYS:CODE:REORDER:NOROOT(0)
??ADCinital?relay:
        LCALL   ?BDISPATCH
        DATA
        DC24    ADCinital

        RSEG XDATA_ROM_C:CONST:REORDER:NOROOT(0)
        DATA8
`?<Constant "SampleApp">`:
        DB "SampleApp"

        RSEG XDATA_ROM_C:CONST:REORDER:NOROOT(0)
        DATA8
`?<Constant "<=400">`:
        DB "<=400"

        RSEG XDATA_ROM_C:CONST:REORDER:NOROOT(0)
        DATA16
`?<Constant "1">`:
        DB "1"

        RSEG XDATA_ROM_C:CONST:REORDER:NOROOT(0)
        DATA16
`?<Constant " ">`:
        DB " "

        RSEG XDATA_ROM_C:CONST:REORDER:NOROOT(0)
        DATA8
`?<Constant "Tem:">`:
        DB "Tem:"

        RSEG XDATA_ROM_C:CONST:REORDER:NOROOT(0)
        DATA16
`?<Constant "C">`:
        DB "C"

        RSEG XDATA_ROM_C:CONST:REORDER:NOROOT(0)
        DATA8
`?<Constant "Hum:">`:
        DB "Hum:"

        RSEG XDATA_ROM_C:CONST:REORDER:NOROOT(0)
        DATA16
`?<Constant "%">`:
        DB "%"

        RSEG XDATA_ROM_C:CONST:REORDER:NOROOT(0)
        DATA8
`?<Constant "Lig:">`:
        DB "Lig:"

        RSEG XDATA_ROM_C:CONST:REORDER:NOROOT(0)
        DATA32
`?<Constant "Lux">`:
        DB "Lux"

        RSEG XDATA_ROM_C:CONST:REORDER:NOROOT(0)
        DATA8
`?<Constant "CO2:">`:
        DB "CO2:"

        RSEG XDATA_ROM_C:CONST:REORDER:NOROOT(0)
        DATA32
`?<Constant "ppm">`:
        DB "ppm"

        RSEG XDATA_ROM_C:CONST:REORDER:NOROOT(0)
        DATA32
__Constant_2710:
        DD 10000

        RSEG XDATA_ROM_C:CONST:REORDER:NOROOT(0)
        DATA32
__Constant_3e8:
        DD 1000

        RSEG XDATA_ROM_C:CONST:REORDER:NOROOT(0)
        DATA32
__Constant_64:
        DD 100

        RSEG XDATA_ROM_C:CONST:REORDER:NOROOT(0)
        DATA32
__Constant_a:
        DD 10

        RSEG XDATA_ROM_C:CONST:REORDER:NOROOT(0)
        DATA32
__Constant_40533333:
        DD 40533333H

        RSEG XDATA_ROM_C:CONST:REORDER:NOROOT(0)
        DATA32
__Constant_4610a3d7:
        DD 4610A3D7H

        RSEG XDATA_ROM_C:CONST:REORDER:NOROOT(0)
        DATA32
__Constant_3ea5e355:
        DD 3EA5E355H

        RSEG XDATA_ROM_C:CONST:REORDER:NOROOT(0)
        DATA32
__Constant_3e87ae14:
        DD 3E87AE14H

        RSEG XDATA_ROM_C:CONST:REORDER:NOROOT(0)
        DATA32
__Constant_41200000:
        DD 41200000H

        END
//  472 /*********************************************************************
//  473 *********************************************************************/
// 
// 1 761 bytes in segment BANKED_CODE
//    48 bytes in segment BANK_RELAYS
//     9 bytes in segment SFR_AN
//    12 bytes in segment XDATA_I
//    12 bytes in segment XDATA_ID
//   104 bytes in segment XDATA_ROM_C
//   104 bytes in segment XDATA_Z
// 
// 1 821 bytes of CODE  memory
//    68 bytes of CONST memory (+ 36 bytes shared)
//     0 bytes of DATA  memory (+  9 bytes shared)
//   116 bytes of XDATA memory
//
//Errors: none
//Warnings: 6
