###############################################################################
#                                                                             #
# IAR C/C++ Compiler V8.10.3.10338/W32 for 8051         31/Dec/2016  18:04:46 #
# Copyright 2004-2011 IAR Systems AB.                                         #
#                                                                             #
#    Core               =  plain                                              #
#    Code model         =  banked                                             #
#    Data model         =  large                                              #
#    Calling convention =  xdata reentrant                                    #
#    Constant location  =  data_rom                                           #
#    Dptr setup         =  1,16                                               #
#    Source file        =  C:\Users\Administrator\Desktop\28\ZStack-CC2530-2. #
#                          3.0-1.4.0\Projects\zstack\Samples\SampleApp\Source #
#                          \EndPoint.c                                        #
#    Command line       =  -f C:\Users\Administrator\Desktop\28\ZStack-CC2530 #
#                          -2.3.0-1.4.0\Projects\zstack\Samples\SampleApp\CC2 #
#                          530DB\..\..\..\Tools\CC2530DB\f8wEndev.cfg         #
#                          (-DCPU32MHZ -DROOT=__near_func -DBLINK_LEDS) -f    #
#                          C:\Users\Administrator\Desktop\28\ZStack-CC2530-2. #
#                          3.0-1.4.0\Projects\zstack\Samples\SampleApp\CC2530 #
#                          DB\..\..\..\Tools\CC2530DB\f8wConfig.cfg           #
#                          (-DSECURE=0 -DZG_SECURE_DYNAMIC=0 -DREFLECTOR      #
#                          -DDEFAULT_CHANLIST=0x00000800                      #
#                          -DZDAPP_CONFIG_PAN_ID=0xFFF1                       #
#                          -DNWK_START_DELAY=100 -DEXTENDED_JOINING_RANDOM_MA #
#                          SK=0x007F -DBEACON_REQUEST_DELAY=100               #
#                          -DBEACON_REQ_DELAY_MASK=0x00FF                     #
#                          -DROUTE_EXPIRY_TIME=30 -DAPSC_ACK_WAIT_DURATION_PO #
#                          LLED=3000 -DNWK_INDIRECT_MSG_TIMEOUT=7             #
#                          -DMAX_RREQ_ENTRIES=8 -DAPSC_MAX_FRAME_RETRIES=3    #
#                          -DNWK_MAX_DATA_RETRIES=2                           #
#                          -DMAX_POLL_FAILURE_RETRIES=2 -DMAX_BCAST=9         #
#                          -DAPS_MAX_GROUPS=16 -DMAX_RTG_ENTRIES=40           #
#                          -DNWK_MAX_BINDING_ENTRIES=4                        #
#                          -DMAX_BINDING_CLUSTER_IDS=4 "-DDEFAULT_KEY={0x01,  #
#                          0x03, 0x05, 0x07, 0x09, 0x0B, 0x0D, 0x0F, 0x00,    #
#                          0x02, 0x04, 0x06, 0x08, 0x0A, 0x0C, 0x0D}"         #
#                          -DMAC_MAX_FRAME_SIZE=116 "-DCONST=const __code"    #
#                          -DGENERIC=__generic -DRFD_RCVC_ALWAYS_ON=FALSE     #
#                          -DPOLL_RATE=1000 -DQUEUED_POLL_RATE=100            #
#                          -DRESPONSE_POLL_RATE=100) -DREJOIN_POLL_RATE=440   #
#                          C:\Users\Administrator\Desktop\28\ZStack-CC2530-2. #
#                          3.0-1.4.0\Projects\zstack\Samples\SampleApp\Source #
#                          \EndPoint.c -D ZIGBEEPRO -D NWK_AUTO_POLL -D       #
#                          ZTOOL_P1 -D xMT_TASK -D xMT_SYS_FUNC -D            #
#                          xMT_ZDO_FUNC -D LCD_SUPPORTED=DEBUG -lC            #
#                          C:\Users\Administrator\Desktop\28\ZStack-CC2530-2. #
#                          3.0-1.4.0\Projects\zstack\Samples\SampleApp\CC2530 #
#                          DB\EndDeviceEB-Pro\List\ -lA                       #
#                          C:\Users\Administrator\Desktop\28\ZStack-CC2530-2. #
#                          3.0-1.4.0\Projects\zstack\Samples\SampleApp\CC2530 #
#                          DB\EndDeviceEB-Pro\List\ --diag_suppress           #
#                          Pe001,Pa010 -o C:\Users\Administrator\Desktop\28\Z #
#                          Stack-CC2530-2.3.0-1.4.0\Projects\zstack\Samples\S #
#                          ampleApp\CC2530DB\EndDeviceEB-Pro\Obj\ -e --debug  #
#                          --core=plain --dptr=16,1 --data_model=large        #
#                          --code_model=banked --calling_convention=xdata_ree #
#                          ntrant --place_constants=data_rom                  #
#                          --nr_virtual_regs 16 -I C:\Users\Administrator\Des #
#                          ktop\28\ZStack-CC2530-2.3.0-1.4.0\Projects\zstack\ #
#                          Samples\SampleApp\CC2530DB\ -I                     #
#                          C:\Users\Administrator\Desktop\28\ZStack-CC2530-2. #
#                          3.0-1.4.0\Projects\zstack\Samples\SampleApp\CC2530 #
#                          DB\..\SOURCE\ -I C:\Users\Administrator\Desktop\28 #
#                          \ZStack-CC2530-2.3.0-1.4.0\Projects\zstack\Samples #
#                          \SampleApp\CC2530DB\..\..\..\ZMAIN\TI2530DB\ -I    #
#                          C:\Users\Administrator\Desktop\28\ZStack-CC2530-2. #
#                          3.0-1.4.0\Projects\zstack\Samples\SampleApp\CC2530 #
#                          DB\..\..\..\..\..\COMPONENTS\MT\ -I                #
#                          C:\Users\Administrator\Desktop\28\ZStack-CC2530-2. #
#                          3.0-1.4.0\Projects\zstack\Samples\SampleApp\CC2530 #
#                          DB\..\..\..\..\..\COMPONENTS\HAL\INCLUDE\ -I       #
#                          C:\Users\Administrator\Desktop\28\ZStack-CC2530-2. #
#                          3.0-1.4.0\Projects\zstack\Samples\SampleApp\CC2530 #
#                          DB\..\..\..\..\..\COMPONENTS\HAL\TARGET\CC2530EB\  #
#                          -I C:\Users\Administrator\Desktop\28\ZStack-CC2530 #
#                          -2.3.0-1.4.0\Projects\zstack\Samples\SampleApp\CC2 #
#                          530DB\..\..\..\..\..\COMPONENTS\OSAL\MCU\CCSOC\    #
#                          -I C:\Users\Administrator\Desktop\28\ZStack-CC2530 #
#                          -2.3.0-1.4.0\Projects\zstack\Samples\SampleApp\CC2 #
#                          530DB\..\..\..\..\..\COMPONENTS\OSAL\INCLUDE\ -I   #
#                          C:\Users\Administrator\Desktop\28\ZStack-CC2530-2. #
#                          3.0-1.4.0\Projects\zstack\Samples\SampleApp\CC2530 #
#                          DB\..\..\..\..\..\COMPONENTS\STACK\AF\ -I          #
#                          C:\Users\Administrator\Desktop\28\ZStack-CC2530-2. #
#                          3.0-1.4.0\Projects\zstack\Samples\SampleApp\CC2530 #
#                          DB\..\..\..\..\..\COMPONENTS\STACK\NWK\ -I         #
#                          C:\Users\Administrator\Desktop\28\ZStack-CC2530-2. #
#                          3.0-1.4.0\Projects\zstack\Samples\SampleApp\CC2530 #
#                          DB\..\..\..\..\..\COMPONENTS\STACK\SEC\ -I         #
#                          C:\Users\Administrator\Desktop\28\ZStack-CC2530-2. #
#                          3.0-1.4.0\Projects\zstack\Samples\SampleApp\CC2530 #
#                          DB\..\..\..\..\..\COMPONENTS\STACK\SAPI\ -I        #
#                          C:\Users\Administrator\Desktop\28\ZStack-CC2530-2. #
#                          3.0-1.4.0\Projects\zstack\Samples\SampleApp\CC2530 #
#                          DB\..\..\..\..\..\COMPONENTS\STACK\SYS\ -I         #
#                          C:\Users\Administrator\Desktop\28\ZStack-CC2530-2. #
#                          3.0-1.4.0\Projects\zstack\Samples\SampleApp\CC2530 #
#                          DB\..\..\..\..\..\COMPONENTS\STACK\ZDO\ -I         #
#                          C:\Users\Administrator\Desktop\28\ZStack-CC2530-2. #
#                          3.0-1.4.0\Projects\zstack\Samples\SampleApp\CC2530 #
#                          DB\..\..\..\..\..\COMPONENTS\ZMAC\F8W\ -I          #
#                          C:\Users\Administrator\Desktop\28\ZStack-CC2530-2. #
#                          3.0-1.4.0\Projects\zstack\Samples\SampleApp\CC2530 #
#                          DB\..\..\..\..\..\COMPONENTS\ZMAC\ -I              #
#                          C:\Users\Administrator\Desktop\28\ZStack-CC2530-2. #
#                          3.0-1.4.0\Projects\zstack\Samples\SampleApp\CC2530 #
#                          DB\..\..\..\..\..\COMPONENTS\SERVICES\SADDR\ -I    #
#                          C:\Users\Administrator\Desktop\28\ZStack-CC2530-2. #
#                          3.0-1.4.0\Projects\zstack\Samples\SampleApp\CC2530 #
#                          DB\..\..\..\..\..\COMPONENTS\SERVICES\SDATA\ -I    #
#                          C:\Users\Administrator\Desktop\28\ZStack-CC2530-2. #
#                          3.0-1.4.0\Projects\zstack\Samples\SampleApp\CC2530 #
#                          DB\..\..\..\..\..\COMPONENTS\MAC\INCLUDE\ -I       #
#                          C:\Users\Administrator\Desktop\28\ZStack-CC2530-2. #
#                          3.0-1.4.0\Projects\zstack\Samples\SampleApp\CC2530 #
#                          DB\..\..\..\..\..\COMPONENTS\MAC\HIGH_LEVEL\ -I    #
#                          C:\Users\Administrator\Desktop\28\ZStack-CC2530-2. #
#                          3.0-1.4.0\Projects\zstack\Samples\SampleApp\CC2530 #
#                          DB\..\..\..\..\..\COMPONENTS\MAC\LOW_LEVEL\srf04\  #
#                          -I C:\Users\Administrator\Desktop\28\ZStack-CC2530 #
#                          -2.3.0-1.4.0\Projects\zstack\Samples\SampleApp\CC2 #
#                          530DB\..\..\..\..\..\COMPONENTS\MAC\LOW_LEVEL\srf0 #
#                          4\SINGLE_CHIP\ -Ohz --require_prototypes           #
#    List file          =  C:\Users\Administrator\Desktop\28\ZStack-CC2530-2. #
#                          3.0-1.4.0\Projects\zstack\Samples\SampleApp\CC2530 #
#                          DB\EndDeviceEB-Pro\List\EndPoint.lst               #
#    Object file        =  C:\Users\Administrator\Desktop\28\ZStack-CC2530-2. #
#                          3.0-1.4.0\Projects\zstack\Samples\SampleApp\CC2530 #
#                          DB\EndDeviceEB-Pro\Obj\EndPoint.r51                #
#                                                                             #
#                                                                             #
###############################################################################

C:\Users\Administrator\Desktop\28\ZStack-CC2530-2.3.0-1.4.0\Projects\zstack\Samples\SampleApp\Source\EndPoint.c
      1          
      2          
      3          /*********************************************************************
      4           * INCLUDES
      5           */
      6          #include "OSAL.h"
      7          #include "ZGlobals.h"
      8          #include "AF.h"
      9          #include "aps_groups.h"
     10          #include "ZDApp.h"
     11          
     12          #include "SampleApp.h"
     13          #include "SampleAppHw.h"
     14          
     15          #include "OnBoard.h"

   \                                 In  segment SFR_AN, at 0x88
   \   union <unnamed> volatile __sfr _A_TCON
   \                     _A_TCON:
   \   000000                DS 1

   \                                 In  segment SFR_AN, at 0x90
   \   union <unnamed> volatile __sfr _A_P1
   \                     _A_P1:
   \   000000                DS 1

   \                                 In  segment SFR_AN, at 0xb4
   \   unsigned char volatile __sfr ADCCON1
   \                     ADCCON1:
   \   000000                DS 1

   \                                 In  segment SFR_AN, at 0xb6
   \   unsigned char volatile __sfr ADCCON3
   \                     ADCCON3:
   \   000000                DS 1

   \                                 In  segment SFR_AN, at 0xba
   \   unsigned char volatile __sfr ADCL
   \                     ADCL:
   \   000000                DS 1

   \                                 In  segment SFR_AN, at 0xbb
   \   unsigned char volatile __sfr ADCH
   \                     ADCH:
   \   000000                DS 1

   \                                 In  segment SFR_AN, at 0xf2
   \   unsigned char volatile __sfr ADCCFG
   \                     ADCCFG:
   \   000000                DS 1

   \                                 In  segment SFR_AN, at 0xf3
   \   unsigned char volatile __sfr P0SEL
   \                     P0SEL:
   \   000000                DS 1

   \                                 In  segment SFR_AN, at 0xfd
   \   unsigned char volatile __sfr P0DIR
   \                     P0DIR:
   \   000000                DS 1
     16          
     17          /* HAL */
     18          #include "hal_lcd.h"
     19          #include "hal_led.h"
     20          #include "hal_key.h"
     21          #include "MT_UART.h"
     22          #include "MT_APP.h"
     23          #include "MT.h"
     24          #include "DHT11.h"
     25          #include "light.h"
     26          #include <math.h>
     27          /*********************************************************************
     28           * GLOBAL VARIABLES
     29           */
     30          byte i; 

   \                                 In  segment XDATA_Z, align 1, keep-with-next
     31          int16 CO2;
   \                     CO2:
   \   000000                DS 2
   \   000002                REQUIRE __INIT_XDATA_Z

   \                                 In  segment XDATA_Z, align 1, keep-with-next
     32          float  ADC=0;
   \                     ADC:
   \   000000                DS 4
   \   000004                REQUIRE __INIT_XDATA_Z

   \                                 In  segment XDATA_Z, align 1, keep-with-next
     33          byte i, Temp[3],  Humidity[3],  volt[6],  light[5],  strTemp[22];
   \                     i:
   \   000000                DS 1
   \   000001                REQUIRE __INIT_XDATA_Z

   \                                 In  segment XDATA_Z, align 1, keep-with-next
   \                     Temp:
   \   000000                DS 3
   \   000003                REQUIRE __INIT_XDATA_Z

   \                                 In  segment XDATA_Z, align 1, keep-with-next
   \                     Humidity:
   \   000000                DS 3
   \   000003                REQUIRE __INIT_XDATA_Z

   \                                 In  segment XDATA_Z, align 1, keep-with-next
   \                     volt:
   \   000000                DS 6
   \   000006                REQUIRE __INIT_XDATA_Z

   \                                 In  segment XDATA_Z, align 1, keep-with-next
   \                     light:
   \   000000                DS 5
   \   000005                REQUIRE __INIT_XDATA_Z

   \                                 In  segment XDATA_Z, align 1, keep-with-next
   \                     strTemp:
   \   000000                DS 22
   \   000016                REQUIRE __INIT_XDATA_Z

   \                                 In  segment XDATA_Z, align 1, keep-with-next
     34          uint8 count=0;
   \                     count:
   \   000000                DS 1
   \   000001                REQUIRE __INIT_XDATA_Z
     35          

   \                                 In  segment XDATA_Z, align 1, keep-with-next
     36          byte addr,cmd;
   \                     addr:
   \   000000                DS 1
   \   000001                REQUIRE __INIT_XDATA_Z

   \                                 In  segment XDATA_Z, align 1, keep-with-next
   \                     cmd:
   \   000000                DS 1
   \   000001                REQUIRE __INIT_XDATA_Z

   \                                 In  segment XDATA_Z, align 1, keep-with-next
     37          uint16 fre;
   \                     fre:
   \   000000                DS 2
   \   000002                REQUIRE __INIT_XDATA_Z
     38          /************************Hardware Related Macros*********|***************************/
     39          #define         MG_PIN                       (0)     //define which analog input channel you are going to use
     40          #define         BOOL_PIN                     (2)     //Arduino D2-CO2 sensor digital pinout, labled with "D" on PCB  
     41          #define         DC_GAIN                      (4.1)   //define the DC gain of amplifier
     42           
     43          /***********************Software Related Macros************************************/
     44          #define         READ_SAMPLE_TIMES            (10)     //define how many samples you are going to take in normal operation
     45          #define         READ_SAMPLE_INTERVAL         (50)    //define the time interval(in milisecond) between each samples in
     46          //normal operation
     47           
     48          /**********************Application Related Macros**********************************/
     49          //These values differ from sensor to sensor. User should derermine this value.
     50          #define         ZERO_POINT_X                 (2.602) //lg400=2.602, the start point_on X_axis of the curve
     51          #define         ZERO_POINT_VOLTAGE           (0.324) //define the output of the sensor in volts when the concentration of CO2 is 400PPM
     52          #define         MAX_POINT_VOLTAGE            (0.265) //define the output of the sensor in volts when the concentration of CO2 is 10,000PPM
     53          #define         REACTION_VOLTGAE             (0.059) //define the ??voltage drop?? of the sensor when move the sensor from air into 1000ppm CO2
     54           
     55          /*****************************Globals***********************************************/

   \                                 In  segment XDATA_I, align 1, keep-with-next
     56          float           CO2Curve[3]  =  {ZERO_POINT_X, ZERO_POINT_VOLTAGE, (REACTION_VOLTGAE / (2.602 - 4))};
   \                     CO2Curve:
   \   000000                DS 12
   \   00000C                REQUIRE `?<Initializer for CO2Curve>`
   \   00000C                REQUIRE __INIT_XDATA_I
     57          // This list should be filled with Application specific Cluster IDs.

   \                                 In  segment XDATA_ROM_C, align 1
     58          const cId_t SampleApp_ClusterList[SAMPLEAPP_MAX_CLUSTERS] =
   \                     SampleApp_ClusterList:
   \   000000   0100         DW 1
   \   000002   0200         DW 2
     59          {
     60           SAMPLEAPP_PERIODIC_CLUSTERID1,
     61           SAMPLEAPP_PERIODIC_CLUSTERID2,
     62           
     63          };
     64          

   \                                 In  segment XDATA_ROM_C, align 1
     65          const SimpleDescriptionFormat_t SampleApp_SimpleDesc =
   \                     SampleApp_SimpleDesc:
   \   000000   14           DB 20
   \   000001   080F         DW 3848
   \   000003   0100         DW 1
   \   000005   00           DB 0
   \   000006   02           DB 2
   \   000007   ....         DW SampleApp_ClusterList
   \   000009   02           DB 2
   \   00000A   ....         DW SampleApp_ClusterList
     66          {
     67            SAMPLEAPP_ENDPOINT,              //  int Endpoint;
     68            SAMPLEAPP_PROFID,                //  uint16 AppProfId[2];
     69            SAMPLEAPP_DEVICEID,              //  uint16 AppDeviceId[2];
     70            SAMPLEAPP_DEVICE_VERSION,        //  int   AppDevVer:4;
     71            SAMPLEAPP_FLAGS,                 //  int   AppFlags:4;
     72            SAMPLEAPP_MAX_CLUSTERS,          //  uint8  AppNumInClusters;
     73            (cId_t *)SampleApp_ClusterList,  //  uint8 *pAppInClusterList;
     74            SAMPLEAPP_MAX_CLUSTERS,          //  uint8  AppNumInClusters;
     75            (cId_t *)SampleApp_ClusterList   //  uint8 *pAppInClusterList;
     76          };
     77          
     78          // This is the Endpoint/Interface description.  It is defined here, but
     79          // filled-in in SampleApp_Init().  Another way to go would be to fill
     80          // in the structure here and make it a "const" (in code space).  The
     81          // way it's defined in this sample app it is define in RAM.

   \                                 In  segment XDATA_Z, align 1, keep-with-next
     82          endPointDesc_t SampleApp_epDesc;
   \                     SampleApp_epDesc:
   \   000000                DS 6
   \   000006                REQUIRE __INIT_XDATA_Z
     83          
     84          /*********************************************************************
     85           * EXTERNAL VARIABLES
     86           */
     87          
     88          /*********************************************************************
     89           * EXTERNAL FUNCTIONS
     90           */
     91          
     92          /*********************************************************************
     93           * LOCAL VARIABLES
     94           */

   \                                 In  segment XDATA_Z, align 1, keep-with-next
     95          uint8 SampleApp_TaskID;   // Task ID for internal task/event processing
   \                     SampleApp_TaskID:
   \   000000                DS 1
   \   000001                REQUIRE __INIT_XDATA_Z
     96                                    // This variable will be received when
     97                                    // SampleApp_Init() is called.

   \                                 In  segment XDATA_Z, align 1, keep-with-next
     98          devStates_t SampleApp_NwkState;
   \                     SampleApp_NwkState:
   \   000000                DS 1
   \   000001                REQUIRE __INIT_XDATA_Z
     99          

   \                                 In  segment XDATA_Z, align 1, keep-with-next
    100          uint8 SampleApp_TransID;  // This is the unique message ID (counter)
   \                     SampleApp_TransID:
   \   000000                DS 1
   \   000001                REQUIRE __INIT_XDATA_Z
    101          
    102          

   \                                 In  segment XDATA_Z, align 1, keep-with-next
    103          afAddrType_t SampleApp_P2P_DstAddr;      //点播
   \                     SampleApp_P2P_DstAddr:
   \   000000                DS 12
   \   00000C                REQUIRE __INIT_XDATA_Z

   \                                 In  segment XDATA_Z, align 1, keep-with-next
    104          afAddrType_t SampleApp_Periodic_DstAddr;      //广播
   \                     SampleApp_Periodic_DstAddr:
   \   000000                DS 12
   \   00000C                REQUIRE __INIT_XDATA_Z

   \                                 In  segment XDATA_Z, align 1, keep-with-next
    105          aps_Group_t SampleApp_Group;
   \                     SampleApp_Group:
   \   000000                DS 18
   \   000012                REQUIRE __INIT_XDATA_Z
    106          

   \                                 In  segment XDATA_Z, align 1, keep-with-next
    107          uint8 SampleAppPeriodicCounter = 0;
   \                     SampleAppPeriodicCounter:
   \   000000                DS 1
   \   000001                REQUIRE __INIT_XDATA_Z

   \                                 In  segment XDATA_Z, align 1, keep-with-next
    108          uint8 SampleAppFlashCounter = 0;
   \                     SampleAppFlashCounter:
   \   000000                DS 1
   \   000001                REQUIRE __INIT_XDATA_Z
    109          
    110          /*********************************************************************
    111           * LOCAL FUNCTIONS
    112           */
    113          void SampleApp_HandleKeys( uint8 shift, uint8 keys );
    114          void SampleApp_MessageMSGCB( afIncomingMSGPacket_t *pckt );
    115          void SampleApp_Send_P2P_Message(void);
    116          void callback(uint8 port,uint8 event);
    117          void ADCinital(void);
    118          int get_CO2_Message( float *pcurve );
    119          /*********************************************************************
    120           * NETWORK LAYER CALLBACKS
    121           */
    122          
    123          /*********************************************************************
    124           * PUBLIC FUNCTIONS
    125           */
    126          
    127          /*********************************************************************
    128           * @fn      SampleApp_Init
    129           *
    130           * @brief   Initialization function for the Generic App Task.
    131           *          This is called during initialization and should contain
    132           *          any application specific initialization (ie. hardware
    133           *          initialization/setup, table initialization, power up
    134           *          notificaiton ... ).
    135           *
    136           * @param   task_id - the ID assigned by OSAL.  This ID should be
    137           *                    used to send messages and set timers.
    138           *
    139           * @return  none
    140           */

   \                                 In  segment BANKED_CODE, align 1, keep-with-next
    141          void SampleApp_Init( uint8 task_id )
   \                     SampleApp_Init:
    142          { 
   \   000000   74F6         MOV     A,#-0xa
   \   000002   12....       LCALL   ?BANKED_ENTER_XDATA
   \   000005                ; Saved register size: 10
   \   000005                ; Auto size: 0
   \   000005   E9           MOV     A,R1
   \   000006   FE           MOV     R6,A
    143            SampleApp_TaskID = task_id;
   \   000007   90....       MOV     DPTR,#SampleApp_TaskID
   \   00000A   F0           MOVX    @DPTR,A
    144            SampleApp_NwkState = DEV_INIT;
   \   00000B   90....       MOV     DPTR,#SampleApp_NwkState
   \   00000E   7401         MOV     A,#0x1
   \   000010   F0           MOVX    @DPTR,A
    145            SampleApp_TransID = 0;
   \   000011   90....       MOV     DPTR,#SampleApp_TransID
   \   000014   E4           CLR     A
   \   000015   F0           MOVX    @DPTR,A
    146            
    147            MT_UartInit();                  //串口初始化
   \   000016                ; Setup parameters for call to function MT_UartInit
   \   000016   12....       LCALL   ??MT_UartInit?relay
    148            MT_UartRegisterTaskID(task_id); //注册串口任务
   \   000019                ; Setup parameters for call to function MT_UartRegisterTaskID
   \   000019   EE           MOV     A,R6
   \   00001A   F9           MOV     R1,A
   \   00001B   12....       LCALL   ??MT_UartRegisterTaskID?relay
    149                                            //315电子
    150            P0SEL &= 0x7f;                  //P0_7配置成通用输入io，用作温湿度数据引脚
   \   00001E   53F37F       ANL     0xf3,#0x7f
    151            P0DIR &= ~0x80; 
   \   000021   53FD7F       ANL     0xfd,#0x7f
    152            //315电子 开启两秒定周期时任务
    153            osal_start_timerEx( SampleApp_TaskID, SAMPLEAPP_SEND_PERIODIC_MSG_EVT,
    154                  (SAMPLEAPP_SEND_PERIODIC_MSG_TIMEOUT + (osal_rand() & 0x00FF)) );
   \   000024                ; Setup parameters for call to function osal_rand
   \   000024   12....       LCALL   ?Subroutine0 & 0xFFFF
    155            
    156           #if defined ( BUILD_ALL_DEVICES )
    157            // The "Demo" target is setup to have BUILD_ALL_DEVICES and HOLD_AUTO_START
    158            // We are looking at a jumper (defined in SampleAppHw.c) to be jumpered
    159            // together - if they are - we will start up a coordinator. Otherwise,
    160            // the device will start as a router.
    161            if ( readCoordinatorJumper() )
    162              zgDeviceLogicalType = ZG_DEVICETYPE_COORDINATOR;
    163            else
    164              zgDeviceLogicalType = ZG_DEVICETYPE_ROUTER;
    165          #endif // BUILD_ALL_DEVICES
    166          
    167          #if defined ( HOLD_AUTO_START )
    168            // HOLD_AUTO_START is a compile option that will surpress ZDApp
    169            //  from starting the device and wait for the application to
    170            //  start the device.
    171            ZDOInitDevice(0);
    172          #endif
    173            
    174            SampleApp_P2P_DstAddr.addrMode = (afAddrMode_t)Addr16Bit; //点播 
   \                     ??CrossCallReturnLabel_0:
   \   000027   90....       MOV     DPTR,#SampleApp_P2P_DstAddr + 8
   \   00002A   7402         MOV     A,#0x2
   \   00002C   F0           MOVX    @DPTR,A
    175            SampleApp_P2P_DstAddr.endPoint = SAMPLEAPP_ENDPOINT; 
   \   00002D   A3           INC     DPTR
   \   00002E   7414         MOV     A,#0x14
   \   000030   F0           MOVX    @DPTR,A
    176            SampleApp_P2P_DstAddr.addr.shortAddr = 0x0000;            //两终端以此地址将测量值发送到协调器
   \   000031   90....       MOV     DPTR,#SampleApp_P2P_DstAddr
   \   000034   E4           CLR     A
   \   000035   F0           MOVX    @DPTR,A
   \   000036   A3           INC     DPTR
   \   000037   F0           MOVX    @DPTR,A
    177            
    178          
    179            //装载描述符信息，默认。
    180            SampleApp_epDesc.endPoint = SAMPLEAPP_ENDPOINT;
   \   000038   90....       MOV     DPTR,#SampleApp_epDesc
   \   00003B   7414         MOV     A,#0x14
   \   00003D   F0           MOVX    @DPTR,A
    181            SampleApp_epDesc.task_id = &SampleApp_TaskID;
   \   00003E   A3           INC     DPTR
   \   00003F   74..         MOV     A,#SampleApp_TaskID & 0xff
   \   000041   F0           MOVX    @DPTR,A
   \   000042   A3           INC     DPTR
   \   000043   74..         MOV     A,#(SampleApp_TaskID >> 8) & 0xff
   \   000045   F0           MOVX    @DPTR,A
    182            SampleApp_epDesc.simpleDesc
    183                      = (SimpleDescriptionFormat_t *)&SampleApp_SimpleDesc;
   \   000046   A3           INC     DPTR
   \   000047   74..         MOV     A,#SampleApp_SimpleDesc & 0xff
   \   000049   F0           MOVX    @DPTR,A
   \   00004A   A3           INC     DPTR
   \   00004B   74..         MOV     A,#(SampleApp_SimpleDesc >> 8) & 0xff
   \   00004D   F0           MOVX    @DPTR,A
    184            SampleApp_epDesc.latencyReq = noLatencyReqs;
   \   00004E   A3           INC     DPTR
   \   00004F   E4           CLR     A
   \   000050   F0           MOVX    @DPTR,A
    185          
    186            // 注册端点描述符
    187            afRegister( &SampleApp_epDesc );
   \   000051                ; Setup parameters for call to function afRegister
   \   000051   7A..         MOV     R2,#SampleApp_epDesc & 0xff
   \   000053   7B..         MOV     R3,#(SampleApp_epDesc >> 8) & 0xff
   \   000055   12....       LCALL   ??afRegister?relay
    188          
    189            // Register for all key events - This app will handle all key events
    190            RegisterForKeys( SampleApp_TaskID );
   \   000058                ; Setup parameters for call to function RegisterForKeys
   \   000058   90....       MOV     DPTR,#SampleApp_TaskID
   \   00005B   E0           MOVX    A,@DPTR
   \   00005C   F9           MOV     R1,A
   \   00005D   12....       LCALL   ??RegisterForKeys?relay
    191            ADCinital();
   \   000060                ; Setup parameters for call to function ADCinital
   \   000060   12....       LCALL   ??ADCinital?relay
    192            B_LUX_Init();
   \   000063                ; Setup parameters for call to function B_LUX_Init
   \   000063   12....       LCALL   ??B_LUX_Init?relay
    193           
    194          #if defined ( LCD_SUPPORTED )
    195            HalLcdWriteString( "SampleApp", HAL_LCD_LINE_1 );
   \   000066                ; Setup parameters for call to function HalLcdWriteString
   \   000066   7901         MOV     R1,#0x1
   \   000068   7A..         MOV     R2,#`?<Constant "SampleApp">` & 0xff
   \   00006A   7B..         MOV     R3,#(`?<Constant "SampleApp">` >> 8) & 0xff
   \   00006C   12....       LCALL   ??HalLcdWriteString?relay
    196          #endif
    197          }
   \   00006F   7F02         MOV     R7,#0x2
   \   000071   02....       LJMP    ?BANKED_LEAVE_XDATA
   \   000074                REQUIRE P0SEL
   \   000074                REQUIRE P0DIR

   \                                 In  segment BANKED_CODE, align 1, keep-with-next
   \                     ?Subroutine0:
   \   000000   12....       LCALL   ??osal_rand?relay
   \   000003                ; Setup parameters for call to function osal_start_timerEx
   \   000003                ; Setup parameters for call to function osal_start_timerEx
   \   000003                ; Setup parameters for call to function osal_start_timerEx
   \   000003   EA           MOV     A,R2
   \   000004   24D0         ADD     A,#-0x30
   \   000006   FC           MOV     R4,A
   \   000007   E4           CLR     A
   \   000008   3407         ADDC    A,#0x7
   \   00000A   FD           MOV     R5,A
   \   00000B   7A01         MOV     R2,#0x1
   \   00000D   7B00         MOV     R3,#0x0
   \   00000F   90....       MOV     DPTR,#SampleApp_TaskID
   \   000012   E0           MOVX    A,@DPTR
   \   000013   F9           MOV     R1,A
   \   000014   12....       LCALL   ??osal_start_timerEx?relay
   \   000017   22           RET
    198          
    199          /*********************************************************************
    200           * @fn      应用层任务轮询函数，所有任务都在这里顺序执行
    201           *
    202           * @brief   Generic Application Task event processor.  This function
    203           *          is called to process all events for the task.  Events
    204           *          include timers, messages and any other user defined events.
    205           *
    206           * @param   task_id  - The OSAL assigned task ID.
    207           * @param   events - events to process.  This is a bit map and can
    208           *                   contain more than one event.
    209           *
    210           * @return  none
    211           */

   \                                 In  segment BANKED_CODE, align 1, keep-with-next
    212          uint16 SampleApp_ProcessEvent( uint8 task_id, uint16 events )
   \                     SampleApp_ProcessEvent:
    213          {
   \   000000   74F4         MOV     A,#-0xc
   \   000002   12....       LCALL   ?BANKED_ENTER_XDATA
   \   000005                ; Saved register size: 12
   \   000005                ; Auto size: 0
   \   000005   EA           MOV     A,R2
   \   000006   FE           MOV     R6,A
   \   000007   EB           MOV     A,R3
   \   000008   FF           MOV     R7,A
    214            afIncomingMSGPacket_t *MSGpkt;
    215            (void)task_id;  // Intentionally unreferenced parameter
    216          
    217            if ( events & SYS_EVENT_MSG )
   \   000009   5480         ANL     A,#0x80
   \   00000B   604A         JZ      ??SampleApp_ProcessEvent_0
    218            {
    219              MSGpkt = (afIncomingMSGPacket_t *)osal_msg_receive( SampleApp_TaskID );
   \   00000D                ; Setup parameters for call to function osal_msg_receive
   \   00000D   8014         SJMP    ??SampleApp_ProcessEvent_1
    220              while ( MSGpkt )
    221              {
    222                switch ( MSGpkt->hdr.event )
    223                {
    224                  // 按键任务，未使用
    225                  case KEY_CHANGE:
    226                    SampleApp_HandleKeys( ((keyChange_t *)MSGpkt)->state, ((keyChange_t *)MSGpkt)->keys );
    227                    break;
    228          
    229                  //接收到无线消息，调用消息解析函数
    230                  case AF_INCOMING_MSG_CMD: 
    231                    SampleApp_MessageMSGCB( MSGpkt );
    232                    break;
    233          
    234                  // 硬件初始化
    235                  case ZDO_STATE_CHANGE:
    236                    SampleApp_NwkState = (devStates_t)(MSGpkt->hdr.status);
   \                     ??SampleApp_ProcessEvent_2:
   \   00000F   A3           INC     DPTR
   \   000010   E0           MOVX    A,@DPTR
   \   000011   90....       MOV     DPTR,#SampleApp_NwkState
   \   000014   F0           MOVX    @DPTR,A
    237                    if ( //(SampleApp_NwkState == DEV_ZB_COORD) ||
    238                        
    239                         //只有温度终端启动1.1s定时循环发送温湿度
    240                         (SampleApp_NwkState == DEV_END_DEVICE) )
   \   000015   6406         XRL     A,#0x6
   \   000017   7003         JNZ     ??CrossCallReturnLabel_1
    241                    {
    242                      //定时启动任务
    243                      osal_start_timerEx( SampleApp_TaskID,
    244                                        SAMPLEAPP_SEND_PERIODIC_MSG_EVT,
    245                                        (SAMPLEAPP_SEND_PERIODIC_MSG_TIMEOUT+(osal_rand() & 0x00FF)) );
   \   000019                ; Setup parameters for call to function osal_rand
   \   000019   12....       LCALL   ?Subroutine0 & 0xFFFF
    246                    }
    247                    else
    248                    {
    249                      // Device is no longer in the network
    250                    }
    251                    break;
    252          
    253                  default:
    254                    break;
    255                }
    256          
    257                // Release the memory
    258                osal_msg_deallocate( (uint8 *)MSGpkt );
   \                     ??CrossCallReturnLabel_1:
   \   00001C                ; Setup parameters for call to function osal_msg_deallocate
   \   00001C   AA..         MOV     R2,?V0 + 0
   \   00001E   AB..         MOV     R3,?V0 + 1
   \   000020   12....       LCALL   ??osal_msg_deallocate?relay
    259          
    260                // Next - if one is available
    261                MSGpkt = (afIncomingMSGPacket_t *)osal_msg_receive( SampleApp_TaskID );
   \   000023                ; Setup parameters for call to function osal_msg_receive
   \                     ??SampleApp_ProcessEvent_1:
   \   000023   90....       MOV     DPTR,#SampleApp_TaskID
   \   000026   E0           MOVX    A,@DPTR
   \   000027   F9           MOV     R1,A
   \   000028   12....       LCALL   ??osal_msg_receive?relay
   \   00002B   8A..         MOV     ?V0 + 0,R2
   \   00002D   8B..         MOV     ?V0 + 1,R3
   \   00002F   E5..         MOV     A,?V0 + 0
   \   000031   45..         ORL     A,?V0 + 1
   \   000033   601A         JZ      ??SampleApp_ProcessEvent_3
   \   000035   85..82       MOV     DPL,?V0 + 0
   \   000038   85..83       MOV     DPH,?V0 + 1
   \   00003B   E0           MOVX    A,@DPTR
   \   00003C   24E6         ADD     A,#-0x1a
   \   00003E   6006         JZ      ??SampleApp_ProcessEvent_4
   \   000040   2449         ADD     A,#0x49
   \   000042   60CB         JZ      ??SampleApp_ProcessEvent_2
   \   000044   80D6         SJMP    ??CrossCallReturnLabel_1
   \                     ??SampleApp_ProcessEvent_4:
   \   000046                ; Setup parameters for call to function SampleApp_MessageMSGCB
   \   000046   AA..         MOV     R2,?V0 + 0
   \   000048   AB..         MOV     R3,?V0 + 1
   \   00004A   12....       LCALL   ??SampleApp_MessageMSGCB?relay
   \   00004D   80CD         SJMP    ??CrossCallReturnLabel_1
    262              }
    263          
    264              // return unprocessed events
    265              return (events ^ SYS_EVENT_MSG);
   \                     ??SampleApp_ProcessEvent_3:
   \   00004F   EE           MOV     A,R6
   \   000050   FA           MOV     R2,A
   \   000051   EF           MOV     A,R7
   \   000052   6480         XRL     A,#0x80
   \                     ??SampleApp_ProcessEvent_5:
   \   000054   FB           MOV     R3,A
   \   000055   8016         SJMP    ??SampleApp_ProcessEvent_6
    266            }
    267          
    268            // Send a message out - This event is generated by a timer
    269            //  (setup in SampleApp_Init()).
    270            if ( events & SAMPLEAPP_SEND_PERIODIC_MSG_EVT )
   \                     ??SampleApp_ProcessEvent_0:
   \   000057   EE           MOV     A,R6
   \   000058   A2E0         MOV     C,0xE0 /* A   */.0
   \   00005A   500D         JNC     ??SampleApp_ProcessEvent_7
    271            {
    272             
    273              SampleApp_Send_P2P_Message();
   \   00005C                ; Setup parameters for call to function SampleApp_Send_P2P_Message
   \   00005C   12....       LCALL   ??SampleApp_Send_P2P_Message?relay
    274          
    275              // Setup to send message again in normal period (+ a little jitter)
    276              osal_start_timerEx( SampleApp_TaskID, SAMPLEAPP_SEND_PERIODIC_MSG_EVT,
    277                  (SAMPLEAPP_SEND_PERIODIC_MSG_TIMEOUT + (osal_rand() & 0x00FF)) );
   \   00005F                ; Setup parameters for call to function osal_rand
   \   00005F   12....       LCALL   ?Subroutine0 & 0xFFFF
    278          
    279              // return unprocessed events
    280              return (events ^ SAMPLEAPP_SEND_PERIODIC_MSG_EVT);
   \                     ??CrossCallReturnLabel_2:
   \   000062   EE           MOV     A,R6
   \   000063   6401         XRL     A,#0x1
   \   000065   FA           MOV     R2,A
   \   000066   EF           MOV     A,R7
   \   000067   80EB         SJMP    ??SampleApp_ProcessEvent_5
    281            }
    282          
    283            // Discard unknown events
    284            return 0;
   \                     ??SampleApp_ProcessEvent_7:
   \   000069   7A00         MOV     R2,#0x0
   \   00006B   7B00         MOV     R3,#0x0
   \                     ??SampleApp_ProcessEvent_6:
   \   00006D   7F04         MOV     R7,#0x4
   \   00006F   02....       LJMP    ?BANKED_LEAVE_XDATA
    285          }
    286          
    287          /*********************************************************************
    288           * Event Generation Functions
    289           */
    290          /*********************************************************************
    291           * @fn      SampleApp_HandleKeys
    292           *
    293           * @brief   Handles all key events for this device.
    294           *
    295           * @param   shift - true if in shift/alt.
    296           * @param   keys - bit field for key events. Valid entries:
    297           *                 HAL_KEY_SW_2
    298           *                 HAL_KEY_SW_1
    299           *
    300           * @return  none
    301           */

   \                                 In  segment BANKED_CODE, align 1, keep-with-next
    302          void SampleApp_HandleKeys( uint8 shift, uint8 keys )
   \                     SampleApp_HandleKeys:
    303          {
   \   000000                ; Saved register size: 0
   \   000000                ; Auto size: 0
    304           //未使用，不得删除 
    305          }
   \   000000   02....       LJMP    ?BRET
    306          
    307          /*********************************************************************
    308           * LOCAL FUNCTIONS
    309           */
    310          
    311          /*********************************************************************
    312           * @fn      SampleApp_MessageMSGCB
    313           *
    314           * @brief   Data message processor callback.  This function processes
    315           *          any incoming data - probably from other devices.  So, based
    316           *          on cluster ID, perform the intended action.
    317           *
    318           * @param   none
    319           *
    320           * @return  none
    321           */

   \                                 In  segment BANKED_CODE, align 1, keep-with-next
    322          void SampleApp_MessageMSGCB( afIncomingMSGPacket_t *pkt )
   \                     SampleApp_MessageMSGCB:
    323          { 
   \   000000   C082         PUSH    DPL
   \   000002   C083         PUSH    DPH
   \   000004                ; Saved register size: 2
   \   000004                ; Auto size: 0
    324            
    325            
    326            
    327            // A message with a serial data block to be transmitted on the serial port.
    328            
    329              addr = pkt->cmd.Data[0];//获取地址是否为1号
   \   000004   EA           MOV     A,R2
   \   000005   2421         ADD     A,#0x21
   \   000007   F8           MOV     R0,A
   \   000008   EB           MOV     A,R3
   \   000009   3400         ADDC    A,#0x0
   \   00000B   F9           MOV     R1,A
   \   00000C   12....       LCALL   ?Subroutine5 & 0xFFFF
   \                     ??CrossCallReturnLabel_12:
   \   00000F   E0           MOVX    A,@DPTR
   \   000010   90....       MOV     DPTR,#addr
   \   000013   F0           MOVX    @DPTR,A
    330              if(addr==1)
   \   000014   6401         XRL     A,#0x1
   \   000016   703D         JNZ     ??SampleApp_MessageMSGCB_0
    331              {
    332                cmd=pkt->cmd.Data[1];//获取开关灯指令
   \   000018   12....       LCALL   ?Subroutine5 & 0xFFFF
   \                     ??CrossCallReturnLabel_13:
   \   00001B   A3           INC     DPTR
   \   00001C   E0           MOVX    A,@DPTR
   \   00001D   90....       MOV     DPTR,#cmd
   \   000020   F0           MOVX    @DPTR,A
    333                if(cmd =='A') //315电子 改动此处为21即使第二个终端的代码
   \   000021   6441         XRL     A,#0x41
   \   000023   7029         JNZ     ??SampleApp_MessageMSGCB_1
    334                {
    335                  P1_0=1; //继电器断开 ,P0_4接继电器控制引脚
   \   000025   D290         SETB    0x90.0
    336                  fre=(pkt->cmd.Data[2])*1000;
   \   000027   8882         MOV     DPL,R0
   \   000029   8983         MOV     DPH,R1
   \   00002B   E0           MOVX    A,@DPTR
   \   00002C   F8           MOV     R0,A
   \   00002D   A3           INC     DPTR
   \   00002E   E0           MOVX    A,@DPTR
   \   00002F   F583         MOV     DPH,A
   \   000031   8882         MOV     DPL,R0
   \   000033   A3           INC     DPTR
   \   000034   A3           INC     DPTR
   \   000035   E0           MOVX    A,@DPTR
   \   000036   F8           MOV     R0,A
   \   000037   75F0E8       MOV     B,#-0x18
   \   00003A   A4           MUL     AB
   \   00003B   C8           XCH     A,R0
   \   00003C   AAF0         MOV     R2,B
   \   00003E   75F003       MOV     B,#0x3
   \   000041   A4           MUL     AB
   \   000042   2A           ADD     A,R2
   \   000043   F9           MOV     R1,A
   \   000044   90....       MOV     DPTR,#fre
   \   000047   E8           MOV     A,R0
   \   000048   F0           MOVX    @DPTR,A
   \   000049   A3           INC     DPTR
   \   00004A   E9           MOV     A,R1
   \   00004B   F0           MOVX    @DPTR,A
   \   00004C   8007         SJMP    ??SampleApp_MessageMSGCB_0
    337                 // HalLedSet( HAL_LED_3, HAL_LED_MODE_OFF);//对应的板子D1灯开
    338                 // HalLedBlink (HAL_LED_3, 0, 50,fre);//闪烁
    339                }
    340                if(cmd =='B')//315电子 改动此处为20即使第二个终端的代码
   \                     ??SampleApp_MessageMSGCB_1:
   \   00004E   E0           MOVX    A,@DPTR
   \   00004F   6442         XRL     A,#0x42
   \   000051   7002         JNZ     ??SampleApp_MessageMSGCB_0
    341                {
    342                  P1_1=0; //继电器吸合，P0_4接继电器控制引脚
   \   000053   C291         CLR     0x90.1
    343                  //HalLedSet( HAL_LED_3, HAL_LED_MODE_ON);//对应的板子D1灯点关
    344                }
    345              }
    346          }
   \                     ??SampleApp_MessageMSGCB_0:
   \   000055   D083         POP     DPH
   \   000057   D082         POP     DPL
   \   000059   02....       LJMP    ?BRET
   \   00005C                REQUIRE _A_P1

   \                                 In  segment BANKED_CODE, align 1, keep-with-next
   \                     ?Subroutine5:
   \   000000   8882         MOV     DPL,R0
   \   000002   8983         MOV     DPH,R1
   \   000004   E0           MOVX    A,@DPTR
   \   000005   FA           MOV     R2,A
   \   000006   A3           INC     DPTR
   \   000007   E0           MOVX    A,@DPTR
   \   000008   F583         MOV     DPH,A
   \   00000A   8A82         MOV     DPL,R2
   \   00000C   22           RET
    347          /*********************************************************************
    348           * @fn      SampleApp_Send_P2P_Message
    349           *
    350           * @brief   point to point.
    351           *
    352           * @param   none
    353           *
    354           * @return  none
    355           */
    356          //每次定时时间到调用该函数  315电子

   \                                 In  segment BANKED_CODE, align 1, keep-with-next
    357          void SampleApp_Send_P2P_Message( void )//此函数只有温度终端会调用，将温湿度原始数据拆分为十位与个位
   \                     SampleApp_Send_P2P_Message:
    358                                                 //II字符
    359          {
   \   000000   74E9         MOV     A,#-0x17
   \   000002   12....       LCALL   ?BANKED_ENTER_XDATA
   \   000005                ; Saved register size: 23
   \   000005                ; Auto size: 3
   \   000005   74FD         MOV     A,#-0x3
   \   000007   12....       LCALL   ?ALLOC_XSTACK8
    360            unsigned long light_data;
    361            
    362            DHT11();//获取温湿度
   \   00000A                ; Setup parameters for call to function DHT11
   \   00000A   12....       LCALL   ??DHT11?relay
    363            Temp[0] = wendu_shi+48;
   \   00000D   90....       MOV     DPTR,#wendu_shi
   \   000010   E0           MOVX    A,@DPTR
   \   000011   2430         ADD     A,#0x30
   \   000013   90....       MOV     DPTR,#Temp
   \   000016   F0           MOVX    @DPTR,A
    364            Temp[1] = wendu_ge+48; 
   \   000017   90....       MOV     DPTR,#wendu_ge
   \   00001A   E0           MOVX    A,@DPTR
   \   00001B   2430         ADD     A,#0x30
   \   00001D   90....       MOV     DPTR,#Temp + 1
   \   000020   F0           MOVX    @DPTR,A
    365            Temp[2] = '\0';
   \   000021   A3           INC     DPTR
   \   000022   E4           CLR     A
   \   000023   F0           MOVX    @DPTR,A
    366            Humidity[0] = shidu_shi+48;
   \   000024   90....       MOV     DPTR,#shidu_shi
   \   000027   E0           MOVX    A,@DPTR
   \   000028   2430         ADD     A,#0x30
   \   00002A   90....       MOV     DPTR,#Humidity
   \   00002D   F0           MOVX    @DPTR,A
    367            Humidity[1] = shidu_ge+48;
   \   00002E   90....       MOV     DPTR,#shidu_ge
   \   000031   E0           MOVX    A,@DPTR
   \   000032   2430         ADD     A,#0x30
   \   000034   90....       MOV     DPTR,#Humidity + 1
   \   000037   F0           MOVX    @DPTR,A
    368            Humidity[2] = '\0'; 
   \   000038   A3           INC     DPTR
   \   000039   E4           CLR     A
   \   00003A   F0           MOVX    @DPTR,A
    369            
    370            CO2=get_CO2_Message(CO2Curve);
   \   00003B                ; Setup parameters for call to function get_CO2_Message
   \   00003B   7A..         MOV     R2,#CO2Curve & 0xff
   \   00003D   7B..         MOV     R3,#(CO2Curve >> 8) & 0xff
   \   00003F   12....       LCALL   ??get_CO2_Message?relay
   \   000042   90....       MOV     DPTR,#CO2
   \   000045   EA           MOV     A,R2
   \   000046   F0           MOVX    @DPTR,A
   \   000047   A3           INC     DPTR
   \   000048   EB           MOV     A,R3
   \   000049   F0           MOVX    @DPTR,A
    371            if(CO2==-1) osal_memcpy(volt, "<=400", 5);//返回-1表示当前气体含量小于400ppm
   \   00004A   90....       MOV     DPTR,#CO2
   \   00004D   E0           MOVX    A,@DPTR
   \   00004E   F4           CPL     A
   \   00004F   7003         JNZ     ??SampleApp_Send_P2P_Message_0
   \   000051   A3           INC     DPTR
   \   000052   E0           MOVX    A,@DPTR
   \   000053   F4           CPL     A
   \                     ??SampleApp_Send_P2P_Message_0:
   \   000054   701E         JNZ     ??SampleApp_Send_P2P_Message_1
   \   000056                ; Setup parameters for call to function osal_memcpy
   \   000056   75....       MOV     ?V0 + 0,#`?<Constant "<=400">` & 0xff
   \   000059   75....       MOV     ?V0 + 1,#(`?<Constant "<=400">` >> 8) & 0xff
   \   00005C   75..00       MOV     ?V0 + 2,#0x0
   \   00005F   78..         MOV     R0,#?V0 + 0
   \   000061   12....       LCALL   ?PUSH_XSTACK_I_THREE
   \   000064   7C05         MOV     R4,#0x5
   \   000066   7D00         MOV     R5,#0x0
   \   000068   7A..         MOV     R2,#volt & 0xff
   \   00006A   7B..         MOV     R3,#(volt >> 8) & 0xff
   \   00006C   12....       LCALL   ??Subroutine9_0 & 0xFFFF
   \                     ??CrossCallReturnLabel_21:
   \   00006F   12....       LCALL   ?DEALLOC_XSTACK8
   \   000072   8063         SJMP    ??SampleApp_Send_P2P_Message_2
    372            else
    373            {
    374              volt[0]=(uint8)(CO2/10000+48); 
   \                     ??SampleApp_Send_P2P_Message_1:
   \   000074   90....       MOV     DPTR,#CO2
   \   000077   E0           MOVX    A,@DPTR
   \   000078   F8           MOV     R0,A
   \   000079   A3           INC     DPTR
   \   00007A   E0           MOVX    A,@DPTR
   \   00007B   F9           MOV     R1,A
   \   00007C   7A10         MOV     R2,#0x10
   \   00007E   7B27         MOV     R3,#0x27
   \   000080   12....       LCALL   ?S_DIV_MOD
   \   000083   E8           MOV     A,R0
   \   000084   2430         ADD     A,#0x30
   \   000086   90....       MOV     DPTR,#volt
   \   000089   12....       LCALL   ?Subroutine4 & 0xFFFF
    375              volt[1]=(uint8)(CO2/1000%10+48);
    376              volt[2]=(uint8)(CO2/100%10+48); 
    377              volt[3]=(uint8)(CO2/10%10+48); 
    378              volt[4]=(uint8)(CO2%10+48);
    379            }
   \                     ??CrossCallReturnLabel_10:
   \   00008C   7AE8         MOV     R2,#-0x18
   \   00008E   7B03         MOV     R3,#0x3
   \   000090   12....       LCALL   ?S_DIV_MOD
   \   000093   7A0A         MOV     R2,#0xa
   \   000095   7B00         MOV     R3,#0x0
   \   000097   12....       LCALL   ?S_DIV_MOD
   \   00009A   EA           MOV     A,R2
   \   00009B   2430         ADD     A,#0x30
   \   00009D   90....       MOV     DPTR,#volt + 1
   \   0000A0   12....       LCALL   ?Subroutine4 & 0xFFFF
   \                     ??CrossCallReturnLabel_11:
   \   0000A3   7A64         MOV     R2,#0x64
   \   0000A5   7B00         MOV     R3,#0x0
   \   0000A7   12....       LCALL   ?S_DIV_MOD
   \   0000AA   7A0A         MOV     R2,#0xa
   \   0000AC   7B00         MOV     R3,#0x0
   \   0000AE   12....       LCALL   ?S_DIV_MOD
   \   0000B1   EA           MOV     A,R2
   \   0000B2   2430         ADD     A,#0x30
   \   0000B4   90....       MOV     DPTR,#volt + 2
   \   0000B7   12....       LCALL   ?Subroutine2 & 0xFFFF
   \                     ??CrossCallReturnLabel_6:
   \   0000BA   12....       LCALL   ?S_DIV_MOD
   \   0000BD   7A0A         MOV     R2,#0xa
   \   0000BF   7B00         MOV     R3,#0x0
   \   0000C1   12....       LCALL   ?S_DIV_MOD
   \   0000C4   EA           MOV     A,R2
   \   0000C5   2430         ADD     A,#0x30
   \   0000C7   90....       MOV     DPTR,#volt + 3
   \   0000CA   12....       LCALL   ?Subroutine2 & 0xFFFF
   \                     ??CrossCallReturnLabel_7:
   \   0000CD   12....       LCALL   ?S_DIV_MOD
   \   0000D0   EA           MOV     A,R2
   \   0000D1   2430         ADD     A,#0x30
   \   0000D3   90....       MOV     DPTR,#volt + 4
   \   0000D6   F0           MOVX    @DPTR,A
    380            
    381            light_data = B_LUX_GetLux();    //读取光照数据
   \                     ??SampleApp_Send_P2P_Message_2:
   \   0000D7                ; Setup parameters for call to function B_LUX_GetLux
   \   0000D7   12....       LCALL   ??B_LUX_GetLux?relay
    382            light[0]=light_data/10000+0x30;
   \   0000DA   8A..         MOV     ?V0 + 0,R2
   \   0000DC   8B..         MOV     ?V0 + 1,R3
   \   0000DE   8C..         MOV     ?V0 + 2,R4
   \   0000E0   8D..         MOV     ?V0 + 3,R5
   \   0000E2   90....       MOV     DPTR,#__Constant_2710
   \   0000E5   78..         MOV     R0,#?V0 + 8
   \   0000E7   12....       LCALL   ?L_MOV_X
   \   0000EA   78..         MOV     R0,#?V0 + 0
   \   0000EC   79..         MOV     R1,#?V0 + 8
   \   0000EE   12....       LCALL   ?UL_DIV_MOD
   \   0000F1   E5..         MOV     A,?V0 + 0
   \   0000F3   2430         ADD     A,#0x30
   \   0000F5   90....       MOV     DPTR,#light
   \   0000F8   F0           MOVX    @DPTR,A
    383            light_data=light_data%10000;   //取余运算
   \   0000F9   8A..         MOV     ?V0 + 0,R2
   \   0000FB   8B..         MOV     ?V0 + 1,R3
   \   0000FD   8C..         MOV     ?V0 + 2,R4
   \   0000FF   8D..         MOV     ?V0 + 3,R5
   \   000101   90....       MOV     DPTR,#__Constant_2710
   \   000104   78..         MOV     R0,#?V0 + 4
   \   000106   12....       LCALL   ?L_MOV_X
   \   000109   78..         MOV     R0,#?V0 + 0
   \   00010B   79..         MOV     R1,#?V0 + 4
   \   00010D   12....       LCALL   ?UL_DIV_MOD
    384            light[1]=light_data/1000+0x30;
   \   000110   85....       MOV     ?V0 + 0,?V0 + 4
   \   000113   85....       MOV     ?V0 + 1,?V0 + 5
   \   000116   85....       MOV     ?V0 + 2,?V0 + 6
   \   000119   85....       MOV     ?V0 + 3,?V0 + 7
   \   00011C   90....       MOV     DPTR,#__Constant_3e8
   \   00011F   78..         MOV     R0,#?V0 + 8
   \   000121   12....       LCALL   ?L_MOV_X
   \   000124   78..         MOV     R0,#?V0 + 0
   \   000126   79..         MOV     R1,#?V0 + 8
   \   000128   12....       LCALL   ?UL_DIV_MOD
   \   00012B   E5..         MOV     A,?V0 + 0
   \   00012D   2430         ADD     A,#0x30
   \   00012F   90....       MOV     DPTR,#light + 1
   \   000132   12....       LCALL   ?Subroutine3 & 0xFFFF
    385            light_data=light_data%1000;    //取余运算
   \                     ??CrossCallReturnLabel_8:
   \   000135   90....       MOV     DPTR,#__Constant_3e8
   \   000138   78..         MOV     R0,#?V0 + 4
   \   00013A   12....       LCALL   ?L_MOV_X
   \   00013D   78..         MOV     R0,#?V0 + 0
   \   00013F   79..         MOV     R1,#?V0 + 4
   \   000141   12....       LCALL   ?UL_DIV_MOD
    386            light[2]=light_data/100+0x30;
   \   000144   85....       MOV     ?V0 + 0,?V0 + 4
   \   000147   85....       MOV     ?V0 + 1,?V0 + 5
   \   00014A   85....       MOV     ?V0 + 2,?V0 + 6
   \   00014D   85....       MOV     ?V0 + 3,?V0 + 7
   \   000150   90....       MOV     DPTR,#__Constant_64
   \   000153   78..         MOV     R0,#?V0 + 8
   \   000155   12....       LCALL   ?L_MOV_X
   \   000158   78..         MOV     R0,#?V0 + 0
   \   00015A   79..         MOV     R1,#?V0 + 8
   \   00015C   12....       LCALL   ?UL_DIV_MOD
   \   00015F   E5..         MOV     A,?V0 + 0
   \   000161   2430         ADD     A,#0x30
   \   000163   90....       MOV     DPTR,#light + 2
   \   000166   12....       LCALL   ?Subroutine3 & 0xFFFF
    387            light_data=light_data%100;     //取余运算
   \                     ??CrossCallReturnLabel_9:
   \   000169   90....       MOV     DPTR,#__Constant_64
   \   00016C   78..         MOV     R0,#?V0 + 4
   \   00016E   12....       LCALL   ?L_MOV_X
   \   000171   78..         MOV     R0,#?V0 + 0
   \   000173   79..         MOV     R1,#?V0 + 4
   \   000175   12....       LCALL   ?UL_DIV_MOD
    388            light[3]=light_data/10+0x30;
   \   000178   85....       MOV     ?V0 + 0,?V0 + 4
   \   00017B   85....       MOV     ?V0 + 1,?V0 + 5
   \   00017E   85....       MOV     ?V0 + 2,?V0 + 6
   \   000181   85....       MOV     ?V0 + 3,?V0 + 7
   \   000184   90....       MOV     DPTR,#__Constant_a
   \   000187   78..         MOV     R0,#?V0 + 8
   \   000189   12....       LCALL   ?L_MOV_X
   \   00018C   78..         MOV     R0,#?V0 + 0
   \   00018E   79..         MOV     R1,#?V0 + 8
   \   000190   12....       LCALL   ?UL_DIV_MOD
   \   000193   E5..         MOV     A,?V0 + 0
   \   000195   2430         ADD     A,#0x30
   \   000197   90....       MOV     DPTR,#light + 3
   \   00019A   F0           MOVX    @DPTR,A
    389            light_data=light_data%10;      //取余运算
    390            light[4]=light_data+0x30; 
   \   00019B   90....       MOV     DPTR,#__Constant_a
   \   00019E   78..         MOV     R0,#?V0 + 0
   \   0001A0   12....       LCALL   ?L_MOV_X
   \   0001A3   78..         MOV     R0,#?V0 + 4
   \   0001A5   79..         MOV     R1,#?V0 + 0
   \   0001A7   12....       LCALL   ?UL_DIV_MOD
   \   0001AA   E5..         MOV     A,?V0 + 0
   \   0001AC   2430         ADD     A,#0x30
   \   0001AE   90....       MOV     DPTR,#light + 4
   \   0001B1   F0           MOVX    @DPTR,A
    391          
    392            //将数据整合后方便发给协调器显示
    393            osal_memcpy(strTemp, "1", 1);//315电子 这里是终端编号，改动为2下载到2号终端。
   \   0001B2                ; Setup parameters for call to function osal_memcpy
   \   0001B2   75....       MOV     ?V0 + 0,#`?<Constant "1">` & 0xff
   \   0001B5   75....       MOV     ?V0 + 1,#(`?<Constant "1">` >> 8) & 0xff
   \   0001B8   75..00       MOV     ?V0 + 2,#0x0
   \   0001BB   78..         MOV     R0,#?V0 + 0
   \   0001BD   12....       LCALL   ?PUSH_XSTACK_I_THREE
   \   0001C0   7C01         MOV     R4,#0x1
   \   0001C2   12....       LCALL   ??Subroutine8_0 & 0xFFFF
   \                     ??CrossCallReturnLabel_20:
   \   0001C5   12....       LCALL   ?DEALLOC_XSTACK8
    394            osal_memcpy(&strTemp[1], " ", 1);
   \   0001C8   75....       MOV     ?V0 + 12,#`?<Constant " ">` & 0xff
   \   0001CB   75....       MOV     ?V0 + 13,#(`?<Constant " ">` >> 8) & 0xff
   \   0001CE   75..00       MOV     ?V0 + 14,#0x0
   \   0001D1                ; Setup parameters for call to function osal_memcpy
   \   0001D1   78..         MOV     R0,#?V0 + 12
   \   0001D3   12....       LCALL   ?PUSH_XSTACK_I_THREE
   \   0001D6   7C01         MOV     R4,#0x1
   \   0001D8   7D00         MOV     R5,#0x0
   \   0001DA   7A..         MOV     R2,#(strTemp + 1) & 0xff
   \   0001DC   7B..         MOV     R3,#((strTemp + 1) >> 8) & 0xff
   \   0001DE   12....       LCALL   ??Subroutine9_0 & 0xFFFF
   \                     ??CrossCallReturnLabel_22:
   \   0001E1   12....       LCALL   ?DEALLOC_XSTACK8
    395            osal_memcpy(&strTemp[2], Temp, 3); 
   \   0001E4   75....       MOV     ?V0 + 0,#Temp & 0xff
   \   0001E7   75....       MOV     ?V0 + 1,#(Temp >> 8) & 0xff
   \   0001EA                ; Setup parameters for call to function osal_memcpy
   \   0001EA   78..         MOV     R0,#?V0 + 0
   \   0001EC   12....       LCALL   ?PUSH_XSTACK_I_THREE
   \   0001EF   7C03         MOV     R4,#0x3
   \   0001F1   7D00         MOV     R5,#0x0
   \   0001F3   7A..         MOV     R2,#(strTemp + 2) & 0xff
   \   0001F5   7B..         MOV     R3,#((strTemp + 2) >> 8) & 0xff
   \   0001F7   12....       LCALL   ??Subroutine9_0 & 0xFFFF
   \                     ??CrossCallReturnLabel_23:
   \   0001FA   12....       LCALL   ?DEALLOC_XSTACK8
    396            osal_memcpy(&strTemp[5], " ", 1); 
   \   0001FD                ; Setup parameters for call to function osal_memcpy
   \   0001FD   78..         MOV     R0,#?V0 + 12
   \   0001FF   12....       LCALL   ?PUSH_XSTACK_I_THREE
   \   000202   7C01         MOV     R4,#0x1
   \   000204   7D00         MOV     R5,#0x0
   \   000206   7A..         MOV     R2,#(strTemp + 5) & 0xff
   \   000208   7B..         MOV     R3,#((strTemp + 5) >> 8) & 0xff
   \   00020A   12....       LCALL   ??Subroutine9_0 & 0xFFFF
   \                     ??CrossCallReturnLabel_24:
   \   00020D   12....       LCALL   ?DEALLOC_XSTACK8
    397            osal_memcpy(&strTemp[6], Humidity, 3);
   \   000210   75....       MOV     ?V0 + 4,#Humidity & 0xff
   \   000213   75....       MOV     ?V0 + 5,#(Humidity >> 8) & 0xff
   \   000216   75..00       MOV     ?V0 + 6,#0x0
   \   000219                ; Setup parameters for call to function osal_memcpy
   \   000219   78..         MOV     R0,#?V0 + 4
   \   00021B   12....       LCALL   ?PUSH_XSTACK_I_THREE
   \   00021E   7C03         MOV     R4,#0x3
   \   000220   7D00         MOV     R5,#0x0
   \   000222   7A..         MOV     R2,#(strTemp + 6) & 0xff
   \   000224   7B..         MOV     R3,#((strTemp + 6) >> 8) & 0xff
   \   000226   12....       LCALL   ??Subroutine9_0 & 0xFFFF
   \                     ??CrossCallReturnLabel_25:
   \   000229   12....       LCALL   ?DEALLOC_XSTACK8
    398            osal_memcpy(&strTemp[9], " ", 1);
   \   00022C                ; Setup parameters for call to function osal_memcpy
   \   00022C   78..         MOV     R0,#?V0 + 12
   \   00022E   12....       LCALL   ?PUSH_XSTACK_I_THREE
   \   000231   7C01         MOV     R4,#0x1
   \   000233   7D00         MOV     R5,#0x0
   \   000235   7A..         MOV     R2,#(strTemp + 9) & 0xff
   \   000237   7B..         MOV     R3,#((strTemp + 9) >> 8) & 0xff
   \   000239   12....       LCALL   ??Subroutine9_0 & 0xFFFF
   \                     ??CrossCallReturnLabel_26:
   \   00023C   12....       LCALL   ?DEALLOC_XSTACK8
    399            osal_memcpy(&strTemp[10], volt, 5);
   \   00023F   85..82       MOV     DPL,?XSP + 0
   \   000242   85..83       MOV     DPH,?XSP + 1
   \   000245   74..         MOV     A,#volt & 0xff
   \   000247   F0           MOVX    @DPTR,A
   \   000248   A3           INC     DPTR
   \   000249   74..         MOV     A,#(volt >> 8) & 0xff
   \   00024B   F0           MOVX    @DPTR,A
   \   00024C   A3           INC     DPTR
   \   00024D   E4           CLR     A
   \   00024E   F0           MOVX    @DPTR,A
   \   00024F                ; Setup parameters for call to function osal_memcpy
   \   00024F   85..82       MOV     DPL,?XSP + 0
   \   000252   85..83       MOV     DPH,?XSP + 1
   \   000255   12....       LCALL   ?PUSH_XSTACK8_X_THREE
   \   000258   7C05         MOV     R4,#0x5
   \   00025A   7D00         MOV     R5,#0x0
   \   00025C   7A..         MOV     R2,#(strTemp + 10) & 0xff
   \   00025E   7B..         MOV     R3,#((strTemp + 10) >> 8) & 0xff
   \   000260   12....       LCALL   ??Subroutine9_0 & 0xFFFF
   \                     ??CrossCallReturnLabel_27:
   \   000263   12....       LCALL   ?DEALLOC_XSTACK8
    400            osal_memcpy(&strTemp[15], " ", 1);
   \   000266                ; Setup parameters for call to function osal_memcpy
   \   000266   78..         MOV     R0,#?V0 + 12
   \   000268   12....       LCALL   ?PUSH_XSTACK_I_THREE
   \   00026B   7C01         MOV     R4,#0x1
   \   00026D   7D00         MOV     R5,#0x0
   \   00026F   7A..         MOV     R2,#(strTemp + 15) & 0xff
   \   000271   7B..         MOV     R3,#((strTemp + 15) >> 8) & 0xff
   \   000273   12....       LCALL   ??Subroutine9_0 & 0xFFFF
   \                     ??CrossCallReturnLabel_28:
   \   000276   12....       LCALL   ?DEALLOC_XSTACK8
    401            osal_memcpy(&strTemp[16], light, 5);
   \   000279   75....       MOV     ?V0 + 8,#light & 0xff
   \   00027C   75....       MOV     ?V0 + 9,#(light >> 8) & 0xff
   \   00027F   75..00       MOV     ?V0 + 10,#0x0
   \   000282                ; Setup parameters for call to function osal_memcpy
   \   000282   78..         MOV     R0,#?V0 + 8
   \   000284   12....       LCALL   ?PUSH_XSTACK_I_THREE
   \   000287   7C05         MOV     R4,#0x5
   \   000289   7D00         MOV     R5,#0x0
   \   00028B   7A..         MOV     R2,#(strTemp + 16) & 0xff
   \   00028D   7B..         MOV     R3,#((strTemp + 16) >> 8) & 0xff
   \   00028F   12....       LCALL   ??Subroutine9_0 & 0xFFFF
   \                     ??CrossCallReturnLabel_29:
   \   000292   12....       LCALL   ?DEALLOC_XSTACK8
    402            osal_memcpy(&strTemp[21], " ", 1);
   \   000295                ; Setup parameters for call to function osal_memcpy
   \   000295   78..         MOV     R0,#?V0 + 12
   \   000297   12....       LCALL   ?PUSH_XSTACK_I_THREE
   \   00029A   7C01         MOV     R4,#0x1
   \   00029C   7D00         MOV     R5,#0x0
   \   00029E   7A..         MOV     R2,#(strTemp + 21) & 0xff
   \   0002A0   7B..         MOV     R3,#((strTemp + 21) >> 8) & 0xff
   \   0002A2   12....       LCALL   ??Subroutine9_0 & 0xFFFF
   \                     ??CrossCallReturnLabel_30:
   \   0002A5   12....       LCALL   ?DEALLOC_XSTACK8
    403            
    404            
    405           //无线发送，将数据送至协调器
    406            AF_DataRequest( &SampleApp_P2P_DstAddr, &SampleApp_epDesc,
    407                                 SAMPLEAPP_PERIODIC_CLUSTERID1,
    408                                 22,
    409                                 strTemp,
    410                                 &SampleApp_TransID,
    411                                 AF_DISCV_ROUTE,
    412                                 AF_DEFAULT_RADIUS );  
   \   0002A8                ; Setup parameters for call to function AF_DataRequest
   \   0002A8   75..1E       MOV     ?V0 + 3,#0x1e
   \   0002AB   78..         MOV     R0,#?V0 + 3
   \   0002AD   12....       LCALL   ?PUSH_XSTACK_I_ONE
   \   0002B0   75....       MOV     ?V0 + 12,#SampleApp_TransID & 0xff
   \   0002B3   75....       MOV     ?V0 + 13,#(SampleApp_TransID >> 8) & 0xff
   \   0002B6   78..         MOV     R0,#?V0 + 12
   \   0002B8   12....       LCALL   ?PUSH_XSTACK_I_TWO
   \   0002BB   75....       MOV     ?V0 + 12,#strTemp & 0xff
   \   0002BE   75....       MOV     ?V0 + 13,#(strTemp >> 8) & 0xff
   \   0002C1   78..         MOV     R0,#?V0 + 12
   \   0002C3   12....       LCALL   ?PUSH_XSTACK_I_TWO
   \   0002C6   75..16       MOV     ?V0 + 12,#0x16
   \   0002C9   75..00       MOV     ?V0 + 13,#0x0
   \   0002CC   78..         MOV     R0,#?V0 + 12
   \   0002CE   12....       LCALL   ?PUSH_XSTACK_I_TWO
   \   0002D1   75..01       MOV     ?V0 + 12,#0x1
   \   0002D4   78..         MOV     R0,#?V0 + 12
   \   0002D6   12....       LCALL   ?PUSH_XSTACK_I_TWO
   \   0002D9   7920         MOV     R1,#0x20
   \   0002DB   7C..         MOV     R4,#SampleApp_epDesc & 0xff
   \   0002DD   7D..         MOV     R5,#(SampleApp_epDesc >> 8) & 0xff
   \   0002DF   7A..         MOV     R2,#SampleApp_P2P_DstAddr & 0xff
   \   0002E1   7B..         MOV     R3,#(SampleApp_P2P_DstAddr >> 8) & 0xff
   \   0002E3   12....       LCALL   ??AF_DataRequest?relay
   \   0002E6   7409         MOV     A,#0x9
   \   0002E8   12....       LCALL   ?DEALLOC_XSTACK8
    413            
    414            osal_memset(strTemp, 0, 22 );
   \   0002EB                ; Setup parameters for call to function osal_memset
   \   0002EB   7C16         MOV     R4,#0x16
   \   0002ED   7D00         MOV     R5,#0x0
   \   0002EF   7900         MOV     R1,#0x0
   \   0002F1   7A..         MOV     R2,#strTemp & 0xff
   \   0002F3   7B..         MOV     R3,#(strTemp >> 8) & 0xff
   \   0002F5   12....       LCALL   ??osal_memset?relay
    415            osal_memcpy(strTemp, "Tem:", 4);
   \   0002F8                ; Setup parameters for call to function osal_memcpy
   \   0002F8   75....       MOV     ?V0 + 12,#`?<Constant "Tem:">` & 0xff
   \   0002FB   75....       MOV     ?V0 + 13,#(`?<Constant "Tem:">` >> 8) & 0xff
   \   0002FE   78..         MOV     R0,#?V0 + 12
   \   000300   12....       LCALL   ?PUSH_XSTACK_I_THREE
   \   000303   12....       LCALL   ?Subroutine6 & 0xFFFF
   \                     ??CrossCallReturnLabel_16:
   \   000306   12....       LCALL   ?DEALLOC_XSTACK8
    416            osal_memcpy(&strTemp[4], Temp, 2); 
   \   000309                ; Setup parameters for call to function osal_memcpy
   \   000309   78..         MOV     R0,#?V0 + 0
   \   00030B   12....       LCALL   ?PUSH_XSTACK_I_THREE
   \   00030E   7C02         MOV     R4,#0x2
   \   000310   7D00         MOV     R5,#0x0
   \   000312   7A..         MOV     R2,#(strTemp + 4) & 0xff
   \   000314   7B..         MOV     R3,#((strTemp + 4) >> 8) & 0xff
   \   000316   12....       LCALL   ??Subroutine9_0 & 0xFFFF
   \                     ??CrossCallReturnLabel_31:
   \   000319   12....       LCALL   ?DEALLOC_XSTACK8
    417            osal_memcpy(&strTemp[6], "C", 1); 
   \   00031C                ; Setup parameters for call to function osal_memcpy
   \   00031C   75....       MOV     ?V0 + 0,#`?<Constant "C">` & 0xff
   \   00031F   75....       MOV     ?V0 + 1,#(`?<Constant "C">` >> 8) & 0xff
   \   000322   78..         MOV     R0,#?V0 + 0
   \   000324   12....       LCALL   ?PUSH_XSTACK_I_THREE
   \   000327   7C01         MOV     R4,#0x1
   \   000329   7D00         MOV     R5,#0x0
   \   00032B   7A..         MOV     R2,#(strTemp + 6) & 0xff
   \   00032D   7B..         MOV     R3,#((strTemp + 6) >> 8) & 0xff
   \   00032F   12....       LCALL   ??Subroutine9_0 & 0xFFFF
   \                     ??CrossCallReturnLabel_32:
   \   000332   12....       LCALL   ?DEALLOC_XSTACK8
    418            HalLcdWriteString( strTemp, HAL_LCD_LINE_1 ); //液晶屏显示
                                      ^
Warning[Pe167]: argument of type "unsigned char *" is incompatible with
          parameter of type "char *"
   \   000335                ; Setup parameters for call to function HalLcdWriteString
   \   000335   7901         MOV     R1,#0x1
   \   000337   12....       LCALL   ?Subroutine1 & 0xFFFF
    419            osal_memset(strTemp, 0, 22 );
    420            osal_memcpy(strTemp, "Hum:", 4);
   \                     ??CrossCallReturnLabel_3:
   \   00033A                ; Setup parameters for call to function osal_memcpy
   \   00033A   75....       MOV     ?V0 + 0,#`?<Constant "Hum:">` & 0xff
   \   00033D   75....       MOV     ?V0 + 1,#(`?<Constant "Hum:">` >> 8) & 0xff
   \   000340   78..         MOV     R0,#?V0 + 0
   \   000342   12....       LCALL   ?PUSH_XSTACK_I_THREE
   \   000345   12....       LCALL   ?Subroutine6 & 0xFFFF
   \                     ??CrossCallReturnLabel_17:
   \   000348   12....       LCALL   ?DEALLOC_XSTACK8
    421            osal_memcpy(&strTemp[4], Humidity, 2); 
   \   00034B                ; Setup parameters for call to function osal_memcpy
   \   00034B   78..         MOV     R0,#?V0 + 4
   \   00034D   12....       LCALL   ?PUSH_XSTACK_I_THREE
   \   000350   7C02         MOV     R4,#0x2
   \   000352   7D00         MOV     R5,#0x0
   \   000354   7A..         MOV     R2,#(strTemp + 4) & 0xff
   \   000356   7B..         MOV     R3,#((strTemp + 4) >> 8) & 0xff
   \   000358   12....       LCALL   ??Subroutine9_0 & 0xFFFF
   \                     ??CrossCallReturnLabel_33:
   \   00035B   12....       LCALL   ?DEALLOC_XSTACK8
    422            osal_memcpy(&strTemp[6], "%", 1); 
   \   00035E                ; Setup parameters for call to function osal_memcpy
   \   00035E   75....       MOV     ?V0 + 0,#`?<Constant "%">` & 0xff
   \   000361   75....       MOV     ?V0 + 1,#(`?<Constant "%">` >> 8) & 0xff
   \   000364   78..         MOV     R0,#?V0 + 0
   \   000366   12....       LCALL   ?PUSH_XSTACK_I_THREE
   \   000369   7C01         MOV     R4,#0x1
   \   00036B   7D00         MOV     R5,#0x0
   \   00036D   7A..         MOV     R2,#(strTemp + 6) & 0xff
   \   00036F   7B..         MOV     R3,#((strTemp + 6) >> 8) & 0xff
   \   000371   12....       LCALL   ??Subroutine9_0 & 0xFFFF
   \                     ??CrossCallReturnLabel_34:
   \   000374   12....       LCALL   ?DEALLOC_XSTACK8
    423            HalLcdWriteString( strTemp, HAL_LCD_LINE_2 ); //液晶屏显示
                                      ^
Warning[Pe167]: argument of type "unsigned char *" is incompatible with
          parameter of type "char *"
   \   000377                ; Setup parameters for call to function HalLcdWriteString
   \   000377   7902         MOV     R1,#0x2
   \   000379   12....       LCALL   ?Subroutine1 & 0xFFFF
    424            osal_memset(strTemp, 0, 22 );
    425            osal_memcpy(strTemp, "Lig:", 4);
   \                     ??CrossCallReturnLabel_4:
   \   00037C                ; Setup parameters for call to function osal_memcpy
   \   00037C   75....       MOV     ?V0 + 0,#`?<Constant "Lig:">` & 0xff
   \   00037F   75....       MOV     ?V0 + 1,#(`?<Constant "Lig:">` >> 8) & 0xff
   \   000382   78..         MOV     R0,#?V0 + 0
   \   000384   12....       LCALL   ?PUSH_XSTACK_I_THREE
   \   000387   12....       LCALL   ?Subroutine6 & 0xFFFF
   \                     ??CrossCallReturnLabel_18:
   \   00038A   12....       LCALL   ?DEALLOC_XSTACK8
    426            osal_memcpy(&strTemp[4], light, 5); 
   \   00038D                ; Setup parameters for call to function osal_memcpy
   \   00038D   78..         MOV     R0,#?V0 + 8
   \   00038F   12....       LCALL   ?PUSH_XSTACK_I_THREE
   \   000392   7C05         MOV     R4,#0x5
   \   000394   7D00         MOV     R5,#0x0
   \   000396   7A..         MOV     R2,#(strTemp + 4) & 0xff
   \   000398   7B..         MOV     R3,#((strTemp + 4) >> 8) & 0xff
   \   00039A   12....       LCALL   ??Subroutine9_0 & 0xFFFF
   \                     ??CrossCallReturnLabel_35:
   \   00039D   12....       LCALL   ?DEALLOC_XSTACK8
    427            osal_memcpy(&strTemp[9], "Lux", 3); 
   \   0003A0                ; Setup parameters for call to function osal_memcpy
   \   0003A0   75....       MOV     ?V0 + 0,#`?<Constant "Lux">` & 0xff
   \   0003A3   75....       MOV     ?V0 + 1,#(`?<Constant "Lux">` >> 8) & 0xff
   \   0003A6   78..         MOV     R0,#?V0 + 0
   \   0003A8   12....       LCALL   ?PUSH_XSTACK_I_THREE
   \   0003AB   7C03         MOV     R4,#0x3
   \   0003AD   7D00         MOV     R5,#0x0
   \   0003AF   7A..         MOV     R2,#(strTemp + 9) & 0xff
   \   0003B1   7B..         MOV     R3,#((strTemp + 9) >> 8) & 0xff
   \   0003B3   12....       LCALL   ??Subroutine9_0 & 0xFFFF
   \                     ??CrossCallReturnLabel_36:
   \   0003B6   12....       LCALL   ?DEALLOC_XSTACK8
    428            HalLcdWriteString( strTemp, HAL_LCD_LINE_3 ); //液晶屏显示
                                      ^
Warning[Pe167]: argument of type "unsigned char *" is incompatible with
          parameter of type "char *"
   \   0003B9                ; Setup parameters for call to function HalLcdWriteString
   \   0003B9   7903         MOV     R1,#0x3
   \   0003BB   12....       LCALL   ?Subroutine1 & 0xFFFF
    429            osal_memset(strTemp, 0, 22 );
    430            osal_memcpy(strTemp, "CO2:", 4);
   \                     ??CrossCallReturnLabel_5:
   \   0003BE                ; Setup parameters for call to function osal_memcpy
   \   0003BE   75....       MOV     ?V0 + 0,#`?<Constant "CO2:">` & 0xff
   \   0003C1   75....       MOV     ?V0 + 1,#(`?<Constant "CO2:">` >> 8) & 0xff
   \   0003C4   78..         MOV     R0,#?V0 + 0
   \   0003C6   12....       LCALL   ?PUSH_XSTACK_I_THREE
   \   0003C9   12....       LCALL   ?Subroutine6 & 0xFFFF
   \                     ??CrossCallReturnLabel_19:
   \   0003CC   12....       LCALL   ?DEALLOC_XSTACK8
    431            osal_memcpy(&strTemp[4], volt, 5); 
   \   0003CF                ; Setup parameters for call to function osal_memcpy
   \   0003CF   85..82       MOV     DPL,?XSP + 0
   \   0003D2   85..83       MOV     DPH,?XSP + 1
   \   0003D5   12....       LCALL   ?PUSH_XSTACK8_X_THREE
   \   0003D8   7C05         MOV     R4,#0x5
   \   0003DA   7D00         MOV     R5,#0x0
   \   0003DC   7A..         MOV     R2,#(strTemp + 4) & 0xff
   \   0003DE   7B..         MOV     R3,#((strTemp + 4) >> 8) & 0xff
   \   0003E0   12....       LCALL   ??Subroutine9_0 & 0xFFFF
   \                     ??CrossCallReturnLabel_37:
   \   0003E3   12....       LCALL   ?DEALLOC_XSTACK8
    432            osal_memcpy(&strTemp[9], "ppm", 3); 
   \   0003E6                ; Setup parameters for call to function osal_memcpy
   \   0003E6   75....       MOV     ?V0 + 0,#`?<Constant "ppm">` & 0xff
   \   0003E9   75....       MOV     ?V0 + 1,#(`?<Constant "ppm">` >> 8) & 0xff
   \   0003EC   78..         MOV     R0,#?V0 + 0
   \   0003EE   12....       LCALL   ?PUSH_XSTACK_I_THREE
   \   0003F1   7C03         MOV     R4,#0x3
   \   0003F3   7D00         MOV     R5,#0x0
   \   0003F5   7A..         MOV     R2,#(strTemp + 9) & 0xff
   \   0003F7   7B..         MOV     R3,#((strTemp + 9) >> 8) & 0xff
   \   0003F9   12....       LCALL   ??Subroutine9_0 & 0xFFFF
   \                     ??CrossCallReturnLabel_38:
   \   0003FC   12....       LCALL   ?DEALLOC_XSTACK8
    433            HalLcdWriteString( strTemp, HAL_LCD_LINE_4 ); //液晶屏显示
                                      ^
Warning[Pe167]: argument of type "unsigned char *" is incompatible with
          parameter of type "char *"
   \   0003FF                ; Setup parameters for call to function HalLcdWriteString
   \   0003FF   7904         MOV     R1,#0x4
   \   000401   7A..         MOV     R2,#strTemp & 0xff
   \   000403   7B..         MOV     R3,#(strTemp >> 8) & 0xff
   \   000405   12....       LCALL   ??HalLcdWriteString?relay
    434           
    435          }
   \   000408   7403         MOV     A,#0x3
   \   00040A   12....       LCALL   ?DEALLOC_XSTACK8
   \   00040D   7F0F         MOV     R7,#0xf
   \   00040F   02....       LJMP    ?BANKED_LEAVE_XDATA

   \                                 In  segment BANKED_CODE, align 1, keep-with-next
   \                     ?Subroutine6:
   \   000000   7C04         MOV     R4,#0x4
   \   000002                REQUIRE ??Subroutine8_0
   \   000002                ; // Fall through to label ??Subroutine8_0

   \                                 In  segment BANKED_CODE, align 1, keep-with-next
   \                     ??Subroutine8_0:
   \   000000   7D00         MOV     R5,#0x0
   \   000002   7A..         MOV     R2,#strTemp & 0xff
   \   000004   7B..         MOV     R3,#(strTemp >> 8) & 0xff
   \   000006                REQUIRE ??Subroutine9_0
   \   000006                ; // Fall through to label ??Subroutine9_0

   \                                 In  segment BANKED_CODE, align 1, keep-with-next
   \                     ??Subroutine9_0:
   \   000000   12....       LCALL   ??osal_memcpy?relay
   \   000003   7403         MOV     A,#0x3
   \   000005   22           RET

   \                                 In  segment BANKED_CODE, align 1, keep-with-next
   \                     ?Subroutine4:
   \   000000   12....       LCALL   ?Subroutine7 & 0xFFFF
   \                     ??CrossCallReturnLabel_14:
   \   000003   22           RET

   \                                 In  segment BANKED_CODE, align 1, keep-with-next
   \                     ?Subroutine7:
   \   000000   F0           MOVX    @DPTR,A
   \   000001   90....       MOV     DPTR,#CO2
   \   000004   E0           MOVX    A,@DPTR
   \   000005   F8           MOV     R0,A
   \   000006   A3           INC     DPTR
   \   000007   E0           MOVX    A,@DPTR
   \   000008   F9           MOV     R1,A
   \   000009   22           RET

   \                                 In  segment BANKED_CODE, align 1, keep-with-next
   \                     ?Subroutine3:
   \   000000   F0           MOVX    @DPTR,A
   \   000001   85....       MOV     ?V0 + 0,?V0 + 4
   \   000004   85....       MOV     ?V0 + 1,?V0 + 5
   \   000007   85....       MOV     ?V0 + 2,?V0 + 6
   \   00000A   85....       MOV     ?V0 + 3,?V0 + 7
   \   00000D   22           RET

   \                                 In  segment BANKED_CODE, align 1, keep-with-next
   \                     ?Subroutine2:
   \   000000   12....       LCALL   ?Subroutine7 & 0xFFFF
   \                     ??CrossCallReturnLabel_15:
   \   000003   7A0A         MOV     R2,#0xa
   \   000005   7B00         MOV     R3,#0x0
   \   000007   22           RET

   \                                 In  segment BANKED_CODE, align 1, keep-with-next
   \                     ?Subroutine1:
   \   000000   7A..         MOV     R2,#strTemp & 0xff
   \   000002   7B..         MOV     R3,#(strTemp >> 8) & 0xff
   \   000004   12....       LCALL   ??HalLcdWriteString?relay
   \   000007                ; Setup parameters for call to function osal_memset
   \   000007                ; Setup parameters for call to function osal_memset
   \   000007                ; Setup parameters for call to function osal_memset
   \   000007   7C16         MOV     R4,#0x16
   \   000009   7D00         MOV     R5,#0x0
   \   00000B   7900         MOV     R1,#0x0
   \   00000D   7A..         MOV     R2,#strTemp & 0xff
   \   00000F   7B..         MOV     R3,#(strTemp >> 8) & 0xff
   \   000011   12....       LCALL   ??osal_memset?relay
   \   000014   22           RET

   \                                 In  segment BANKED_CODE, align 1, keep-with-next
    436          void callback(uint8 port, uint8 event)
   \                     callback:
    437          {
   \   000000                ; Saved register size: 0
   \   000000                ; Auto size: 0
    438          }
   \   000000   02....       LJMP    ?BRET

   \                                 In  segment BANKED_CODE, align 1, keep-with-next
    439          int get_CO2_Message( float *pcurve )
   \                     get_CO2_Message:
    440          {
   \   000000   74F0         MOV     A,#-0x10
   \   000002   12....       LCALL   ?BANKED_ENTER_XDATA
   \   000005                ; Saved register size: 16
   \   000005                ; Auto size: 0
   \   000005   EA           MOV     A,R2
   \   000006   FE           MOV     R6,A
   \   000007   EB           MOV     A,R3
   \   000008   FF           MOV     R7,A
    441           
    442            unsigned short  NUM;
    443            
    444             while ( !ADCIF ) ;
   \                     ??get_CO2_Message_0:
   \   000009   A28D         MOV     C,0x88.5
   \   00000B   50FC         JNC     ??get_CO2_Message_0
    445                  
    446             NUM = ADCL;
   \   00000D   E5BA         MOV     A,0xba
   \   00000F   F5..         MOV     ?V0 + 0,A
    447             NUM |= ((uint16)ADCH) << 8 ;//这里注意一下
    448             NUM >>= 4;
   \   000011   E5BB         MOV     A,0xbb
   \   000013   F9           MOV     R1,A
   \   000014   E5..         MOV     A,?V0 + 0
   \   000016   F5..         MOV     ?V0 + 2,A
   \   000018   E9           MOV     A,R1
   \   000019   F5..         MOV     ?V0 + 3,A
   \   00001B   7404         MOV     A,#0x4
   \   00001D   78..         MOV     R0,#?V0 + 2
   \   00001F   12....       LCALL   ?US_SHR
   \   000022   85....       MOV     ?V0 + 0,?V0 + 2
   \   000025   85....       MOV     ?V0 + 1,?V0 + 3
    449            
    450            ADCinital();
   \   000028                ; Setup parameters for call to function ADCinital
   \   000028   12....       LCALL   ??ADCinital?relay
    451            if (NUM&0x8000) NUM=0;
    452            if (NUM>4000) NUM=0;
   \   00002B   C3           CLR     C
   \   00002C   E5..         MOV     A,?V0 + 0
   \   00002E   94A1         SUBB    A,#-0x5f
   \   000030   E5..         MOV     A,?V0 + 1
   \   000032   940F         SUBB    A,#0xf
   \   000034   4006         JC      ??get_CO2_Message_1
   \   000036   75..00       MOV     ?V0 + 0,#0x0
   \   000039   75..00       MOV     ?V0 + 1,#0x0
    453            ADC=(float)((float)NUM*3.30/2048); 
    454            ADC = ADC / 4.52;
   \                     ??get_CO2_Message_1:
   \   00003C   E4           CLR     A
   \   00003D   F5..         MOV     ?V0 + 2,A
   \   00003F   F5..         MOV     ?V0 + 3,A
   \   000041   78..         MOV     R0,#?V0 + 0
   \   000043   12....       LCALL   ?UL_TO_FLT
   \   000046   90....       MOV     DPTR,#__Constant_40533333
   \   000049   78..         MOV     R0,#?V0 + 4
   \   00004B   12....       LCALL   ?L_MOV_X
   \   00004E   78..         MOV     R0,#?V0 + 0
   \   000050   79..         MOV     R1,#?V0 + 4
   \   000052   12....       LCALL   ?FLT_MUL
   \   000055   90....       MOV     DPTR,#__Constant_4610a3d7
   \   000058   78..         MOV     R0,#?V0 + 4
   \   00005A   12....       LCALL   ?L_MOV_X
   \   00005D   78..         MOV     R0,#?V0 + 0
   \   00005F   79..         MOV     R1,#?V0 + 4
   \   000061   12....       LCALL   ?FLT_DIV
   \   000064   90....       MOV     DPTR,#ADC
   \   000067   78..         MOV     R0,#?V0 + 0
   \   000069   12....       LCALL   ?L_MOV_TO_X
    455            if (ADC > ZERO_POINT_VOLTAGE || ADC < MAX_POINT_VOLTAGE ) {
   \   00006C   90....       MOV     DPTR,#ADC
   \   00006F   78..         MOV     R0,#?V0 + 0
   \   000071   12....       LCALL   ?L_MOV_X
   \   000074   90....       MOV     DPTR,#__Constant_3ea5e355
   \   000077   78..         MOV     R0,#?V0 + 4
   \   000079   12....       LCALL   ?L_MOV_X
   \   00007C   78..         MOV     R0,#?V0 + 0
   \   00007E   79..         MOV     R1,#?V0 + 4
   \   000080   12....       LCALL   ?FLT_GE
   \   000083   4019         JC      ??get_CO2_Message_2
   \   000085   90....       MOV     DPTR,#ADC
   \   000088   78..         MOV     R0,#?V0 + 0
   \   00008A   12....       LCALL   ?L_MOV_X
   \   00008D   90....       MOV     DPTR,#__Constant_3e87ae14
   \   000090   78..         MOV     R0,#?V0 + 4
   \   000092   12....       LCALL   ?L_MOV_X
   \   000095   78..         MOV     R0,#?V0 + 0
   \   000097   79..         MOV     R1,#?V0 + 4
   \   000099   12....       LCALL   ?FLT_LT
   \   00009C   5006         JNC     ??get_CO2_Message_3
    456              return -1;
   \                     ??get_CO2_Message_2:
   \   00009E   7AFF         MOV     R2,#-0x1
   \   0000A0   7BFF         MOV     R3,#-0x1
   \   0000A2   805E         SJMP    ??get_CO2_Message_4
    457            } else {
    458              return pow(10, (ADC - pcurve[1]) / pcurve[2] + pcurve[0]);
                            ^
Warning[Pa093]: implicit conversion from floating point to integer
   \                     ??get_CO2_Message_3:
   \   0000A4                ; Setup parameters for call to function pow
   \   0000A4   90....       MOV     DPTR,#ADC
   \   0000A7   78..         MOV     R0,#?V0 + 0
   \   0000A9   12....       LCALL   ?L_MOV_X
   \   0000AC   8E82         MOV     DPL,R6
   \   0000AE   8F83         MOV     DPH,R7
   \   0000B0   A3           INC     DPTR
   \   0000B1   A3           INC     DPTR
   \   0000B2   A3           INC     DPTR
   \   0000B3   A3           INC     DPTR
   \   0000B4   78..         MOV     R0,#?V0 + 4
   \   0000B6   12....       LCALL   ?L_MOV_X
   \   0000B9   78..         MOV     R0,#?V0 + 0
   \   0000BB   79..         MOV     R1,#?V0 + 4
   \   0000BD   12....       LCALL   ?FLT_SUB
   \   0000C0   8E82         MOV     DPL,R6
   \   0000C2   8F83         MOV     DPH,R7
   \   0000C4   A3           INC     DPTR
   \   0000C5   A3           INC     DPTR
   \   0000C6   A3           INC     DPTR
   \   0000C7   A3           INC     DPTR
   \   0000C8   A3           INC     DPTR
   \   0000C9   A3           INC     DPTR
   \   0000CA   A3           INC     DPTR
   \   0000CB   A3           INC     DPTR
   \   0000CC   78..         MOV     R0,#?V0 + 4
   \   0000CE   12....       LCALL   ?L_MOV_X
   \   0000D1   78..         MOV     R0,#?V0 + 0
   \   0000D3   79..         MOV     R1,#?V0 + 4
   \   0000D5   12....       LCALL   ?FLT_DIV
   \   0000D8   8E82         MOV     DPL,R6
   \   0000DA   8F83         MOV     DPH,R7
   \   0000DC   78..         MOV     R0,#?V0 + 4
   \   0000DE   12....       LCALL   ?L_MOV_X
   \   0000E1   78..         MOV     R0,#?V0 + 0
   \   0000E3   79..         MOV     R1,#?V0 + 4
   \   0000E5   12....       LCALL   ?FLT_ADD
   \   0000E8   78..         MOV     R0,#?V0 + 0
   \   0000EA   12....       LCALL   ?PUSH_XSTACK_I_FOUR
   \   0000ED   90....       MOV     DPTR,#__Constant_41200000
   \   0000F0   12....       LCALL   ?XLOAD_R2345
   \   0000F3   12....       LCALL   ??pow?relay
   \   0000F6   7404         MOV     A,#0x4
   \   0000F8   12....       LCALL   ?DEALLOC_XSTACK8
   \   0000FB   12....       LCALL   ?R2345_FLT_TO_L
   \   0000FE   AA..         MOV     R2,?V0 + 0
   \   000100   AB..         MOV     R3,?V0 + 1
   \                     ??get_CO2_Message_4:
   \   000102   7F08         MOV     R7,#0x8
   \   000104   02....       LJMP    ?BANKED_LEAVE_XDATA
   \   000107                REQUIRE _A_TCON
   \   000107                REQUIRE ADCL
   \   000107                REQUIRE ADCH
    459              ADC = 0;
                     ^
Warning[Pe111]: statement is unreachable
    460            }
    461                                               
    462          }
    463          

   \                                 In  segment BANKED_CODE, align 1, keep-with-next
    464          void ADCinital(void)
   \                     ADCinital:
    465          {
   \   000000                ; Saved register size: 0
   \   000000                ; Auto size: 0
    466            ADCH&=0X00;//清EOC标志
   \   000000   E5BB         MOV     A,0xbb
   \   000002   75BB00       MOV     0xbb,#0x0
    467            ADCCFG|=0X40;//p0.6配置为模拟口
   \   000005   43F240       ORL     0xf2,#0x40
    468            ADCCON3=0XB6;//单次转换，参考电压为电源电压，对P0.6采样，精度12位            
   \   000008   75B6B6       MOV     0xb6,#-0x4a
    469            ADCCON1=0X30;//停止AD
   \   00000B   75B430       MOV     0xb4,#0x30
    470            ADCCON1|=0X40;//开始AD
   \   00000E   43B440       ORL     0xb4,#0x40
    471          }
   \   000011   02....       LJMP    ?BRET
   \   000014                REQUIRE ADCH
   \   000014                REQUIRE ADCCFG
   \   000014                REQUIRE ADCCON3
   \   000014                REQUIRE ADCCON1

   \                                 In  segment XDATA_ID, align 1, keep-with-next
   \                     `?<Initializer for CO2Curve>`:
   \   000000   2B872640     DD 4026872BH
   \   000004   54E3A53E     DD 3EA5E354H
   \   000008   35DD2CBD     DD 0BD2CDD35H

   \                                 In  segment BANK_RELAYS, align 1
   \                     ??SampleApp_Init?relay:
   \   000000   12....       LCALL   ?BDISPATCH
   \   000003   ......       DC24    SampleApp_Init

   \                                 In  segment BANK_RELAYS, align 1
   \                     ??SampleApp_ProcessEvent?relay:
   \   000000   12....       LCALL   ?BDISPATCH
   \   000003   ......       DC24    SampleApp_ProcessEvent

   \                                 In  segment BANK_RELAYS, align 1
   \                     ??SampleApp_HandleKeys?relay:
   \   000000   12....       LCALL   ?BDISPATCH
   \   000003   ......       DC24    SampleApp_HandleKeys

   \                                 In  segment BANK_RELAYS, align 1
   \                     ??SampleApp_MessageMSGCB?relay:
   \   000000   12....       LCALL   ?BDISPATCH
   \   000003   ......       DC24    SampleApp_MessageMSGCB

   \                                 In  segment BANK_RELAYS, align 1
   \                     ??SampleApp_Send_P2P_Message?relay:
   \   000000   12....       LCALL   ?BDISPATCH
   \   000003   ......       DC24    SampleApp_Send_P2P_Message

   \                                 In  segment BANK_RELAYS, align 1
   \                     ??callback?relay:
   \   000000   12....       LCALL   ?BDISPATCH
   \   000003   ......       DC24    callback

   \                                 In  segment BANK_RELAYS, align 1
   \                     ??get_CO2_Message?relay:
   \   000000   12....       LCALL   ?BDISPATCH
   \   000003   ......       DC24    get_CO2_Message

   \                                 In  segment BANK_RELAYS, align 1
   \                     ??ADCinital?relay:
   \   000000   12....       LCALL   ?BDISPATCH
   \   000003   ......       DC24    ADCinital

   \                                 In  segment XDATA_ROM_C, align 1
   \                     `?<Constant "SampleApp">`:
   \   000000   53616D70     DB "SampleApp"
   \            6C654170
   \            7000    

   \                                 In  segment XDATA_ROM_C, align 1
   \                     `?<Constant "<=400">`:
   \   000000   3C3D3430     DB "<=400"
   \            3000    

   \                                 In  segment XDATA_ROM_C, align 1
   \                     `?<Constant "1">`:
   \   000000   3100         DB "1"

   \                                 In  segment XDATA_ROM_C, align 1
   \                     `?<Constant " ">`:
   \   000000   2000         DB " "

   \                                 In  segment XDATA_ROM_C, align 1
   \                     `?<Constant "Tem:">`:
   \   000000   54656D3A     DB "Tem:"
   \            00      

   \                                 In  segment XDATA_ROM_C, align 1
   \                     `?<Constant "C">`:
   \   000000   4300         DB "C"

   \                                 In  segment XDATA_ROM_C, align 1
   \                     `?<Constant "Hum:">`:
   \   000000   48756D3A     DB "Hum:"
   \            00      

   \                                 In  segment XDATA_ROM_C, align 1
   \                     `?<Constant "%">`:
   \   000000   2500         DB "%"

   \                                 In  segment XDATA_ROM_C, align 1
   \                     `?<Constant "Lig:">`:
   \   000000   4C69673A     DB "Lig:"
   \            00      

   \                                 In  segment XDATA_ROM_C, align 1
   \                     `?<Constant "Lux">`:
   \   000000   4C757800     DB "Lux"

   \                                 In  segment XDATA_ROM_C, align 1
   \                     `?<Constant "CO2:">`:
   \   000000   434F323A     DB "CO2:"
   \            00      

   \                                 In  segment XDATA_ROM_C, align 1
   \                     `?<Constant "ppm">`:
   \   000000   70706D00     DB "ppm"

   \                                 In  segment XDATA_ROM_C, align 1
   \                     __Constant_2710:
   \   000000   10270000     DD 10000

   \                                 In  segment XDATA_ROM_C, align 1
   \                     __Constant_3e8:
   \   000000   E8030000     DD 1000

   \                                 In  segment XDATA_ROM_C, align 1
   \                     __Constant_64:
   \   000000   64000000     DD 100

   \                                 In  segment XDATA_ROM_C, align 1
   \                     __Constant_a:
   \   000000   0A000000     DD 10

   \                                 In  segment XDATA_ROM_C, align 1
   \                     __Constant_40533333:
   \   000000   33335340     DD 40533333H

   \                                 In  segment XDATA_ROM_C, align 1
   \                     __Constant_4610a3d7:
   \   000000   D7A31046     DD 4610A3D7H

   \                                 In  segment XDATA_ROM_C, align 1
   \                     __Constant_3ea5e355:
   \   000000   55E3A53E     DD 3EA5E355H

   \                                 In  segment XDATA_ROM_C, align 1
   \                     __Constant_3e87ae14:
   \   000000   14AE873E     DD 3E87AE14H

   \                                 In  segment XDATA_ROM_C, align 1
   \                     __Constant_41200000:
   \   000000   00002041     DD 41200000H
    472          /*********************************************************************
    473          *********************************************************************/

   Maximum stack usage in bytes:

     Function                       ISTACK PSTACK XSTACK
     --------                       ------ ------ ------
     ADCinital                          0      0     16
     SampleApp_HandleKeys               0      0      0
     SampleApp_Init                     0      0     10
       -> MT_UartInit                   0      0     20
       -> MT_UartRegisterTaskID         0      0     20
       -> osal_rand                     0      0     20
       -> osal_start_timerEx            0      0     20
       -> afRegister                    0      0     20
       -> RegisterForKeys               0      0     20
       -> ADCinital                     0      0     20
       -> B_LUX_Init                    0      0     20
       -> HalLcdWriteString             0      0     20
     SampleApp_MessageMSGCB             2      0     12
     SampleApp_ProcessEvent             0      0     12
       -> osal_msg_receive              0      0     24
       -> osal_rand                     0      0     24
       -> osal_start_timerEx            0      0     24
       -> osal_msg_deallocate           0      0     24
       -> osal_msg_receive              0      0     24
       -> SampleApp_MessageMSGCB        0      0     24
       -> SampleApp_Send_P2P_Message
                                        0      0     24
       -> osal_rand                     0      0     24
       -> osal_start_timerEx            0      0     24
     SampleApp_Send_P2P_Message         0      0     47
       -> DHT11                         0      0     52
       -> get_CO2_Message               0      0     52
       -> osal_memcpy                   0      0     58
       -> B_LUX_GetLux                  0      0     52
       -> osal_memcpy                   0      0     58
       -> osal_memcpy                   0      0     58
       -> osal_memcpy                   0      0     58
       -> osal_memcpy                   0      0     58
       -> osal_memcpy                   0      0     58
       -> osal_memcpy                   0      0     58
       -> osal_memcpy                   0      0     58
       -> osal_memcpy                   0      0     58
       -> osal_memcpy                   0      0     58
       -> osal_memcpy                   0      0     58
       -> AF_DataRequest                0      0     70
       -> osal_memset                   0      0     52
       -> osal_memcpy                   0      0     58
       -> osal_memcpy                   0      0     58
       -> osal_memcpy                   0      0     58
       -> HalLcdWriteString             0      0     52
       -> osal_memset                   0      0     52
       -> osal_memcpy                   0      0     58
       -> osal_memcpy                   0      0     58
       -> osal_memcpy                   0      0     58
       -> HalLcdWriteString             0      0     52
       -> osal_memset                   0      0     52
       -> osal_memcpy                   0      0     58
       -> osal_memcpy                   0      0     58
       -> osal_memcpy                   0      0     58
       -> HalLcdWriteString             0      0     52
       -> osal_memset                   0      0     52
       -> osal_memcpy                   0      0     58
       -> osal_memcpy                   0      0     58
       -> osal_memcpy                   0      0     58
       -> HalLcdWriteString             0      0     52
     callback                           0      0      0
     get_CO2_Message                    0      0     46
       -> ADCinital                     0      0     32
       -> pow                           0      0     40


   Segment part sizes:

     Function/Label                     Bytes
     --------------                     -----
     _A_TCON                               1
     _A_P1                                 1
     ADCCON1                               1
     ADCCON3                               1
     ADCL                                  1
     ADCH                                  1
     ADCCFG                                1
     P0SEL                                 1
     P0DIR                                 1
     CO2                                   2
     ADC                                   4
     i                                     1
     Temp                                  3
     Humidity                              3
     volt                                  6
     light                                 5
     strTemp                              22
     count                                 1
     addr                                  1
     cmd                                   1
     fre                                   2
     CO2Curve                             12
     SampleApp_ClusterList                 4
     SampleApp_SimpleDesc                 12
     SampleApp_epDesc                      6
     SampleApp_TaskID                      1
     SampleApp_NwkState                    1
     SampleApp_TransID                     1
     SampleApp_P2P_DstAddr                12
     SampleApp_Periodic_DstAddr           12
     SampleApp_Group                      18
     SampleAppPeriodicCounter              1
     SampleAppFlashCounter                 1
     SampleApp_Init                      116
     ?Subroutine0                         24
     SampleApp_ProcessEvent              114
     SampleApp_HandleKeys                  3
     SampleApp_MessageMSGCB               92
     ?Subroutine5                         13
     SampleApp_Send_P2P_Message         1042
     ?Subroutine6                          2
     ??Subroutine8_0                       6
     ??Subroutine9_0                       6
     ?Subroutine4                          4
     ?Subroutine7                         10
     ?Subroutine3                         14
     ?Subroutine2                          8
     ?Subroutine1                         21
     callback                              3
     get_CO2_Message                     263
     ADCinital                            20
     ?<Initializer for CO2Curve>          12
     ??SampleApp_Init?relay                6
     ??SampleApp_ProcessEvent?relay        6
     ??SampleApp_HandleKeys?relay          6
     ??SampleApp_MessageMSGCB?relay        6
     ??SampleApp_Send_P2P_Message?relay    6
     ??callback?relay                      6
     ??get_CO2_Message?relay               6
     ??ADCinital?relay                     6
     ?<Constant "SampleApp">              10
     ?<Constant "<=400">                   6
     ?<Constant "1">                       2
     ?<Constant " ">                       2
     ?<Constant "Tem:">                    5
     ?<Constant "C">                       2
     ?<Constant "Hum:">                    5
     ?<Constant "%">                       2
     ?<Constant "Lig:">                    5
     ?<Constant "Lux">                     4
     ?<Constant "CO2:">                    5
     ?<Constant "ppm">                     4
     __Constant_2710                       4
     __Constant_3e8                        4
     __Constant_64                         4
     __Constant_a                          4
     __Constant_40533333                   4
     __Constant_4610a3d7                   4
     __Constant_3ea5e355                   4
     __Constant_3e87ae14                   4
     __Constant_41200000                   4

 
 1 761 bytes in segment BANKED_CODE
    48 bytes in segment BANK_RELAYS
     9 bytes in segment SFR_AN
    12 bytes in segment XDATA_I
    12 bytes in segment XDATA_ID
   104 bytes in segment XDATA_ROM_C
   104 bytes in segment XDATA_Z
 
 1 821 bytes of CODE  memory
    68 bytes of CONST memory (+ 36 bytes shared)
     0 bytes of DATA  memory (+  9 bytes shared)
   116 bytes of XDATA memory

Errors: none
Warnings: 6
