///////////////////////////////////////////////////////////////////////////////
//                                                                            /
// IAR C/C++ Compiler V8.10.3.10338/W32 for 8051        31/Dec/2016  19:37:22 /
// Copyright 2004-2011 IAR Systems AB.                                        /
//                                                                            /
//    Core               =  plain                                             /
//    Code model         =  banked                                            /
//    Data model         =  large                                             /
//    Calling convention =  xdata reentrant                                   /
//    Constant location  =  data_rom                                          /
//    Dptr setup         =  1,16                                              /
//    Source file        =  C:\Users\Administrator\Desktop\28\ZStack-CC2530-2 /
//                          .3.0-1.4.0\Projects\zstack\Samples\SampleApp\Sour /
//                          ce\light.c                                        /
//    Command line       =  -f C:\Users\Administrator\Desktop\28\ZStack-CC253 /
//                          0-2.3.0-1.4.0\Projects\zstack\Samples\SampleApp\C /
//                          C2530DB\..\..\..\Tools\CC2530DB\f8wEndev.cfg      /
//                          (-DCPU32MHZ -DROOT=__near_func -DBLINK_LEDS) -f   /
//                          C:\Users\Administrator\Desktop\28\ZStack-CC2530-2 /
//                          .3.0-1.4.0\Projects\zstack\Samples\SampleApp\CC25 /
//                          30DB\..\..\..\Tools\CC2530DB\f8wConfig.cfg        /
//                          (-DSECURE=0 -DZG_SECURE_DYNAMIC=0 -DREFLECTOR     /
//                          -DDEFAULT_CHANLIST=0x00000800                     /
//                          -DZDAPP_CONFIG_PAN_ID=0xFFF1                      /
//                          -DNWK_START_DELAY=100 -DEXTENDED_JOINING_RANDOM_M /
//                          ASK=0x007F -DBEACON_REQUEST_DELAY=100             /
//                          -DBEACON_REQ_DELAY_MASK=0x00FF                    /
//                          -DROUTE_EXPIRY_TIME=30 -DAPSC_ACK_WAIT_DURATION_P /
//                          OLLED=3000 -DNWK_INDIRECT_MSG_TIMEOUT=7           /
//                          -DMAX_RREQ_ENTRIES=8 -DAPSC_MAX_FRAME_RETRIES=3   /
//                          -DNWK_MAX_DATA_RETRIES=2                          /
//                          -DMAX_POLL_FAILURE_RETRIES=2 -DMAX_BCAST=9        /
//                          -DAPS_MAX_GROUPS=16 -DMAX_RTG_ENTRIES=40          /
//                          -DNWK_MAX_BINDING_ENTRIES=4                       /
//                          -DMAX_BINDING_CLUSTER_IDS=4                       /
//                          "-DDEFAULT_KEY={0x01, 0x03, 0x05, 0x07, 0x09,     /
//                          0x0B, 0x0D, 0x0F, 0x00, 0x02, 0x04, 0x06, 0x08,   /
//                          0x0A, 0x0C, 0x0D}" -DMAC_MAX_FRAME_SIZE=116       /
//                          "-DCONST=const __code" -DGENERIC=__generic        /
//                          -DRFD_RCVC_ALWAYS_ON=FALSE -DPOLL_RATE=1000       /
//                          -DQUEUED_POLL_RATE=100 -DRESPONSE_POLL_RATE=100)  /
//                          -DREJOIN_POLL_RATE=440 C:\Users\Administrator\Des /
//                          ktop\28\ZStack-CC2530-2.3.0-1.4.0\Projects\zstack /
//                          \Samples\SampleApp\Source\light.c -D ZIGBEEPRO    /
//                          -D NWK_AUTO_POLL -D ZTOOL_P1 -D xMT_TASK -D       /
//                          xMT_SYS_FUNC -D xMT_ZDO_FUNC -D                   /
//                          LCD_SUPPORTED=DEBUG -lC                           /
//                          C:\Users\Administrator\Desktop\28\ZStack-CC2530-2 /
//                          .3.0-1.4.0\Projects\zstack\Samples\SampleApp\CC25 /
//                          30DB\EnDevicEB1-Pro\List\ -lA                     /
//                          C:\Users\Administrator\Desktop\28\ZStack-CC2530-2 /
//                          .3.0-1.4.0\Projects\zstack\Samples\SampleApp\CC25 /
//                          30DB\EnDevicEB1-Pro\List\ --diag_suppress         /
//                          Pe001,Pa010 -o C:\Users\Administrator\Desktop\28\ /
//                          ZStack-CC2530-2.3.0-1.4.0\Projects\zstack\Samples /
//                          \SampleApp\CC2530DB\EnDevicEB1-Pro\Obj\ -e        /
//                          --debug --core=plain --dptr=16,1                  /
//                          --data_model=large --code_model=banked            /
//                          --calling_convention=xdata_reentrant              /
//                          --place_constants=data_rom --nr_virtual_regs 16   /
//                          -I C:\Users\Administrator\Desktop\28\ZStack-CC253 /
//                          0-2.3.0-1.4.0\Projects\zstack\Samples\SampleApp\C /
//                          C2530DB\ -I C:\Users\Administrator\Desktop\28\ZSt /
//                          ack-CC2530-2.3.0-1.4.0\Projects\zstack\Samples\Sa /
//                          mpleApp\CC2530DB\..\SOURCE\ -I                    /
//                          C:\Users\Administrator\Desktop\28\ZStack-CC2530-2 /
//                          .3.0-1.4.0\Projects\zstack\Samples\SampleApp\CC25 /
//                          30DB\..\..\..\ZMAIN\TI2530DB\ -I                  /
//                          C:\Users\Administrator\Desktop\28\ZStack-CC2530-2 /
//                          .3.0-1.4.0\Projects\zstack\Samples\SampleApp\CC25 /
//                          30DB\..\..\..\..\..\COMPONENTS\MT\ -I             /
//                          C:\Users\Administrator\Desktop\28\ZStack-CC2530-2 /
//                          .3.0-1.4.0\Projects\zstack\Samples\SampleApp\CC25 /
//                          30DB\..\..\..\..\..\COMPONENTS\HAL\INCLUDE\ -I    /
//                          C:\Users\Administrator\Desktop\28\ZStack-CC2530-2 /
//                          .3.0-1.4.0\Projects\zstack\Samples\SampleApp\CC25 /
//                          30DB\..\..\..\..\..\COMPONENTS\HAL\TARGET\CC2530E /
//                          B\ -I C:\Users\Administrator\Desktop\28\ZStack-CC /
//                          2530-2.3.0-1.4.0\Projects\zstack\Samples\SampleAp /
//                          p\CC2530DB\..\..\..\..\..\COMPONENTS\OSAL\MCU\CCS /
//                          OC\ -I C:\Users\Administrator\Desktop\28\ZStack-C /
//                          C2530-2.3.0-1.4.0\Projects\zstack\Samples\SampleA /
//                          pp\CC2530DB\..\..\..\..\..\COMPONENTS\OSAL\INCLUD /
//                          E\ -I C:\Users\Administrator\Desktop\28\ZStack-CC /
//                          2530-2.3.0-1.4.0\Projects\zstack\Samples\SampleAp /
//                          p\CC2530DB\..\..\..\..\..\COMPONENTS\STACK\AF\    /
//                          -I C:\Users\Administrator\Desktop\28\ZStack-CC253 /
//                          0-2.3.0-1.4.0\Projects\zstack\Samples\SampleApp\C /
//                          C2530DB\..\..\..\..\..\COMPONENTS\STACK\NWK\ -I   /
//                          C:\Users\Administrator\Desktop\28\ZStack-CC2530-2 /
//                          .3.0-1.4.0\Projects\zstack\Samples\SampleApp\CC25 /
//                          30DB\..\..\..\..\..\COMPONENTS\STACK\SEC\ -I      /
//                          C:\Users\Administrator\Desktop\28\ZStack-CC2530-2 /
//                          .3.0-1.4.0\Projects\zstack\Samples\SampleApp\CC25 /
//                          30DB\..\..\..\..\..\COMPONENTS\STACK\SAPI\ -I     /
//                          C:\Users\Administrator\Desktop\28\ZStack-CC2530-2 /
//                          .3.0-1.4.0\Projects\zstack\Samples\SampleApp\CC25 /
//                          30DB\..\..\..\..\..\COMPONENTS\STACK\SYS\ -I      /
//                          C:\Users\Administrator\Desktop\28\ZStack-CC2530-2 /
//                          .3.0-1.4.0\Projects\zstack\Samples\SampleApp\CC25 /
//                          30DB\..\..\..\..\..\COMPONENTS\STACK\ZDO\ -I      /
//                          C:\Users\Administrator\Desktop\28\ZStack-CC2530-2 /
//                          .3.0-1.4.0\Projects\zstack\Samples\SampleApp\CC25 /
//                          30DB\..\..\..\..\..\COMPONENTS\ZMAC\F8W\ -I       /
//                          C:\Users\Administrator\Desktop\28\ZStack-CC2530-2 /
//                          .3.0-1.4.0\Projects\zstack\Samples\SampleApp\CC25 /
//                          30DB\..\..\..\..\..\COMPONENTS\ZMAC\ -I           /
//                          C:\Users\Administrator\Desktop\28\ZStack-CC2530-2 /
//                          .3.0-1.4.0\Projects\zstack\Samples\SampleApp\CC25 /
//                          30DB\..\..\..\..\..\COMPONENTS\SERVICES\SADDR\    /
//                          -I C:\Users\Administrator\Desktop\28\ZStack-CC253 /
//                          0-2.3.0-1.4.0\Projects\zstack\Samples\SampleApp\C /
//                          C2530DB\..\..\..\..\..\COMPONENTS\SERVICES\SDATA\ /
//                           -I C:\Users\Administrator\Desktop\28\ZStack-CC25 /
//                          30-2.3.0-1.4.0\Projects\zstack\Samples\SampleApp\ /
//                          CC2530DB\..\..\..\..\..\COMPONENTS\MAC\INCLUDE\   /
//                          -I C:\Users\Administrator\Desktop\28\ZStack-CC253 /
//                          0-2.3.0-1.4.0\Projects\zstack\Samples\SampleApp\C /
//                          C2530DB\..\..\..\..\..\COMPONENTS\MAC\HIGH_LEVEL\ /
//                           -I C:\Users\Administrator\Desktop\28\ZStack-CC25 /
//                          30-2.3.0-1.4.0\Projects\zstack\Samples\SampleApp\ /
//                          CC2530DB\..\..\..\..\..\COMPONENTS\MAC\LOW_LEVEL\ /
//                          srf04\ -I C:\Users\Administrator\Desktop\28\ZStac /
//                          k-CC2530-2.3.0-1.4.0\Projects\zstack\Samples\Samp /
//                          leApp\CC2530DB\..\..\..\..\..\COMPONENTS\MAC\LOW_ /
//                          LEVEL\srf04\SINGLE_CHIP\ -Ohz                     /
//                          --require_prototypes                              /
//    List file          =  C:\Users\Administrator\Desktop\28\ZStack-CC2530-2 /
//                          .3.0-1.4.0\Projects\zstack\Samples\SampleApp\CC25 /
//                          30DB\EnDevicEB1-Pro\List\light.s51                /
//                                                                            /
//                                                                            /
///////////////////////////////////////////////////////////////////////////////

        NAME light

        RTMODEL "__SystemLibrary", "CLib"
        RTMODEL "__calling_convention", "xdata_reentrant"
        RTMODEL "__code_model", "banked"
        RTMODEL "__core", "plain"
        RTMODEL "__data_model", "large"
        RTMODEL "__dptr_size", "16"
        RTMODEL "__extended_stack", "disabled"
        RTMODEL "__location_for_constants", "data"
        RTMODEL "__number_of_dptrs", "1"
        RTMODEL "__rt_version", "1"

        RSEG DOVERLAY:DATA:NOROOT(0)
        RSEG IOVERLAY:IDATA:NOROOT(0)
        RSEG ISTACK:IDATA:NOROOT(0)
        RSEG PSTACK:XDATA:NOROOT(0)
        RSEG XSTACK:XDATA:NOROOT(0)

        EXTERN ?BANKED_ENTER_XDATA
        EXTERN ?BANKED_LEAVE_XDATA
        EXTERN ?BDISPATCH
        EXTERN ?BRET
        EXTERN ?FLT_DIV
        EXTERN ?FLT_MUL
        EXTERN ?FLT_TO_UL
        EXTERN ?L_MOV_X
        EXTERN ?UL_TO_FLT
        EXTERN ?V0
        EXTERN __INIT_XDATA_Z

        PUBLIC ??B_LUX_Delay5ms?relay
        FUNCTION ??B_LUX_Delay5ms?relay,0203H
        PUBLIC ??B_LUX_Delay5us?relay
        FUNCTION ??B_LUX_Delay5us?relay,0203H
        PUBLIC ??B_LUX_GetLux?relay
        FUNCTION ??B_LUX_GetLux?relay,0203H
        PUBLIC ??B_LUX_Init?relay
        FUNCTION ??B_LUX_Init?relay,0203H
        PUBLIC ??B_LUX_Multiple_read?relay
        FUNCTION ??B_LUX_Multiple_read?relay,0203H
        PUBLIC ??B_LUX_RecvACK?relay
        FUNCTION ??B_LUX_RecvACK?relay,0203H
        PUBLIC ??B_LUX_RecvByte?relay
        FUNCTION ??B_LUX_RecvByte?relay,0203H
        PUBLIC ??B_LUX_SendACK?relay
        FUNCTION ??B_LUX_SendACK?relay,0203H
        PUBLIC ??B_LUX_SendByte?relay
        FUNCTION ??B_LUX_SendByte?relay,0203H
        PUBLIC ??B_LUX_Single_Write?relay
        FUNCTION ??B_LUX_Single_Write?relay,0203H
        PUBLIC ??B_LUX_Start?relay
        FUNCTION ??B_LUX_Start?relay,0203H
        PUBLIC ??B_LUX_Stop?relay
        FUNCTION ??B_LUX_Stop?relay,0203H
        PUBLIC BUF_0
        PUBLIC B_LUX_Delay5ms
        FUNCTION B_LUX_Delay5ms,021203H
        ARGFRAME XSTACK, 10, STACK
        ARGFRAME IOVERLAY, 0, STATIC
        ARGFRAME DOVERLAY, 0, STATIC
        LOCFRAME XSTACK, 9, STACK
        PUBLIC B_LUX_Delay5us
        FUNCTION B_LUX_Delay5us,080203H
        ARGFRAME XSTACK, 9, STACK
        ARGFRAME IOVERLAY, 0, STATIC
        ARGFRAME DOVERLAY, 0, STATIC
        PUBLIC B_LUX_GetLux
        FUNCTION B_LUX_GetLux,021203H
        ARGFRAME XSTACK, 0, STACK
        LOCFRAME XSTACK, 16, STACK
        PUBLIC B_LUX_Init
        FUNCTION B_LUX_Init,021203H
        ARGFRAME XSTACK, 0, STACK
        LOCFRAME ISTACK, 2, STACK
        PUBLIC B_LUX_Multiple_read
        FUNCTION B_LUX_Multiple_read,021203H
        ARGFRAME XSTACK, 16, STACK
        ARGFRAME IOVERLAY, 0, STATIC
        ARGFRAME DOVERLAY, 0, STATIC
        LOCFRAME ISTACK, 1, STACK
        LOCFRAME XSTACK, 10, STACK
        PUBLIC B_LUX_RecvACK
        FUNCTION B_LUX_RecvACK,021203H
        ARGFRAME XSTACK, 9, STACK
        ARGFRAME IOVERLAY, 0, STATIC
        ARGFRAME DOVERLAY, 0, STATIC
        LOCFRAME XSTACK, 9, STACK
        PUBLIC B_LUX_RecvByte
        FUNCTION B_LUX_RecvByte,021203H
        ARGFRAME XSTACK, 10, STACK
        ARGFRAME IOVERLAY, 0, STATIC
        ARGFRAME DOVERLAY, 0, STATIC
        LOCFRAME XSTACK, 9, STACK
        PUBLIC B_LUX_SendACK
        FUNCTION B_LUX_SendACK,021203H
        ARGFRAME XSTACK, 10, STACK
        ARGFRAME IOVERLAY, 0, STATIC
        ARGFRAME DOVERLAY, 0, STATIC
        LOCFRAME XSTACK, 9, STACK
        PUBLIC B_LUX_SendByte
        FUNCTION B_LUX_SendByte,021203H
        ARGFRAME XSTACK, 10, STACK
        ARGFRAME IOVERLAY, 0, STATIC
        ARGFRAME DOVERLAY, 0, STATIC
        LOCFRAME XSTACK, 9, STACK
        PUBLIC B_LUX_Single_Write
        FUNCTION B_LUX_Single_Write,021203H
        ARGFRAME XSTACK, 16, STACK
        ARGFRAME IOVERLAY, 0, STATIC
        ARGFRAME DOVERLAY, 0, STATIC
        LOCFRAME XSTACK, 9, STACK
        PUBLIC B_LUX_Start
        FUNCTION B_LUX_Start,021203H
        ARGFRAME XSTACK, 10, STACK
        ARGFRAME IOVERLAY, 0, STATIC
        ARGFRAME DOVERLAY, 0, STATIC
        LOCFRAME ISTACK, 2, STACK
        PUBLIC B_LUX_Stop
        FUNCTION B_LUX_Stop,021203H
        ARGFRAME XSTACK, 10, STACK
        ARGFRAME IOVERLAY, 0, STATIC
        ARGFRAME DOVERLAY, 0, STATIC
        LOCFRAME ISTACK, 2, STACK
        PUBWEAK P1DIR
        PUBWEAK P1SEL
        PUBWEAK _A_P1
        PUBWEAK __Constant_3f99999a
        PUBWEAK __Constant_3fb33333
        PUBLIC dis_data_0
        
        CFI Names cfiNames0
        CFI StackFrame CFA_SP SP IDATA
        CFI StackFrame CFA_PSP16 PSP16 XDATA
        CFI StackFrame CFA_XSP16 XSP16 XDATA
        CFI StaticOverlayFrame CFA_IOVERLAY IOVERLAY
        CFI StaticOverlayFrame CFA_DOVERLAY DOVERLAY
        CFI Resource `PSW.CY`:1, `B.BR0`:1, `B.BR1`:1, `B.BR2`:1, `B.BR3`:1
        CFI Resource `B.BR4`:1, `B.BR5`:1, `B.BR6`:1, `B.BR7`:1, `VB.BR8`:1
        CFI Resource `VB.BR9`:1, `VB.BR10`:1, `VB.BR11`:1, `VB.BR12`:1
        CFI Resource `VB.BR13`:1, `VB.BR14`:1, `VB.BR15`:1, VB:8, B:8, A:8
        CFI Resource PSW:8, DPL0:8, DPH0:8, R0:8, R1:8, R2:8, R3:8, R4:8, R5:8
        CFI Resource R6:8, R7:8, V0:8, V1:8, V2:8, V3:8, V4:8, V5:8, V6:8, V7:8
        CFI Resource V8:8, V9:8, V10:8, V11:8, V12:8, V13:8, V14:8, V15:8, SP:8
        CFI Resource PSPH:8, PSPL:8, PSP16:16, XSPH:8, XSPL:8, XSP16:16
        CFI VirtualResource ?RET:24
        CFI Resource ?BRET_EXT:8
        CFI VirtualResource ?RET_HIGH:8, ?RET_LOW:8
        CFI ResourceParts PSP16 PSPH, PSPL
        CFI ResourceParts XSP16 XSPH, XSPL
        CFI ResourceParts ?RET ?BRET_EXT, ?RET_HIGH, ?RET_LOW
        CFI EndNames cfiNames0
        
        CFI Common cfiCommon0 Using cfiNames0
        CFI CodeAlign 1
        CFI DataAlign -1
        CFI ReturnAddress ?RET CODE
        CFI CFA_DOVERLAY Used
        CFI CFA_IOVERLAY Used
        CFI CFA_SP SP+-3
        CFI CFA_PSP16 PSP16+0
        CFI CFA_XSP16 XSP16+0
        CFI `PSW.CY` SameValue
        CFI `B.BR0` SameValue
        CFI `B.BR1` SameValue
        CFI `B.BR2` SameValue
        CFI `B.BR3` SameValue
        CFI `B.BR4` SameValue
        CFI `B.BR5` SameValue
        CFI `B.BR6` SameValue
        CFI `B.BR7` SameValue
        CFI `VB.BR8` SameValue
        CFI `VB.BR9` SameValue
        CFI `VB.BR10` SameValue
        CFI `VB.BR11` SameValue
        CFI `VB.BR12` SameValue
        CFI `VB.BR13` SameValue
        CFI `VB.BR14` SameValue
        CFI `VB.BR15` SameValue
        CFI VB SameValue
        CFI B Undefined
        CFI A Undefined
        CFI PSW SameValue
        CFI DPL0 SameValue
        CFI DPH0 SameValue
        CFI R0 Undefined
        CFI R1 Undefined
        CFI R2 Undefined
        CFI R3 Undefined
        CFI R4 Undefined
        CFI R5 Undefined
        CFI R6 SameValue
        CFI R7 SameValue
        CFI V0 SameValue
        CFI V1 SameValue
        CFI V2 SameValue
        CFI V3 SameValue
        CFI V4 SameValue
        CFI V5 SameValue
        CFI V6 SameValue
        CFI V7 SameValue
        CFI V8 SameValue
        CFI V9 SameValue
        CFI V10 SameValue
        CFI V11 SameValue
        CFI V12 SameValue
        CFI V13 SameValue
        CFI V14 SameValue
        CFI V15 SameValue
        CFI PSPH Undefined
        CFI PSPL Undefined
        CFI XSPH Undefined
        CFI XSPL Undefined
        CFI ?RET Concat
        CFI ?BRET_EXT Frame(CFA_SP, 3)
        CFI ?RET_HIGH Frame(CFA_SP, 2)
        CFI ?RET_LOW Frame(CFA_SP, 1)
        CFI EndCommon cfiCommon0
        
        
        CFI Common cfiCommon1 Using cfiNames0
        CFI CodeAlign 1
        CFI DataAlign -1
        CFI ReturnAddress ?RET CODE
        CFI CFA_DOVERLAY Used
        CFI CFA_IOVERLAY Used
        CFI CFA_SP SP+-2
        CFI CFA_PSP16 PSP16+0
        CFI CFA_XSP16 XSP16+0
        CFI `PSW.CY` SameValue
        CFI `B.BR0` SameValue
        CFI `B.BR1` SameValue
        CFI `B.BR2` SameValue
        CFI `B.BR3` SameValue
        CFI `B.BR4` SameValue
        CFI `B.BR5` SameValue
        CFI `B.BR6` SameValue
        CFI `B.BR7` SameValue
        CFI `VB.BR8` SameValue
        CFI `VB.BR9` SameValue
        CFI `VB.BR10` SameValue
        CFI `VB.BR11` SameValue
        CFI `VB.BR12` SameValue
        CFI `VB.BR13` SameValue
        CFI `VB.BR14` SameValue
        CFI `VB.BR15` SameValue
        CFI VB SameValue
        CFI B SameValue
        CFI A SameValue
        CFI PSW SameValue
        CFI DPL0 SameValue
        CFI DPH0 SameValue
        CFI R0 SameValue
        CFI R1 SameValue
        CFI R2 SameValue
        CFI R3 SameValue
        CFI R4 SameValue
        CFI R5 SameValue
        CFI R6 SameValue
        CFI R7 SameValue
        CFI V0 SameValue
        CFI V1 SameValue
        CFI V2 SameValue
        CFI V3 SameValue
        CFI V4 SameValue
        CFI V5 SameValue
        CFI V6 SameValue
        CFI V7 SameValue
        CFI V8 SameValue
        CFI V9 SameValue
        CFI V10 SameValue
        CFI V11 SameValue
        CFI V12 SameValue
        CFI V13 SameValue
        CFI V14 SameValue
        CFI V15 SameValue
        CFI PSPH Undefined
        CFI PSPL Undefined
        CFI XSPH Undefined
        CFI XSPL Undefined
        CFI ?RET Concat
        CFI ?BRET_EXT SameValue
        CFI ?RET_HIGH Frame(CFA_SP, 2)
        CFI ?RET_LOW Frame(CFA_SP, 1)
        CFI EndCommon cfiCommon1
        
Delay_ms            SYMBOL "Delay_ms"
??Delay_ms?relay    SYMBOL "?relay", Delay_ms
B_LUX_Delay5ms      SYMBOL "B_LUX_Delay5ms"
??B_LUX_Delay5ms?relay SYMBOL "?relay", B_LUX_Delay5ms
B_LUX_Delay5us      SYMBOL "B_LUX_Delay5us"
??B_LUX_Delay5us?relay SYMBOL "?relay", B_LUX_Delay5us
B_LUX_GetLux        SYMBOL "B_LUX_GetLux"
??B_LUX_GetLux?relay SYMBOL "?relay", B_LUX_GetLux
B_LUX_Init          SYMBOL "B_LUX_Init"
??B_LUX_Init?relay  SYMBOL "?relay", B_LUX_Init
B_LUX_Multiple_read SYMBOL "B_LUX_Multiple_read"
??B_LUX_Multiple_read?relay SYMBOL "?relay", B_LUX_Multiple_read
B_LUX_RecvACK       SYMBOL "B_LUX_RecvACK"
??B_LUX_RecvACK?relay SYMBOL "?relay", B_LUX_RecvACK
B_LUX_RecvByte      SYMBOL "B_LUX_RecvByte"
??B_LUX_RecvByte?relay SYMBOL "?relay", B_LUX_RecvByte
B_LUX_SendACK       SYMBOL "B_LUX_SendACK"
??B_LUX_SendACK?relay SYMBOL "?relay", B_LUX_SendACK
B_LUX_SendByte      SYMBOL "B_LUX_SendByte"
??B_LUX_SendByte?relay SYMBOL "?relay", B_LUX_SendByte
B_LUX_Single_Write  SYMBOL "B_LUX_Single_Write"
??B_LUX_Single_Write?relay SYMBOL "?relay", B_LUX_Single_Write
B_LUX_Start         SYMBOL "B_LUX_Start"
??B_LUX_Start?relay SYMBOL "?relay", B_LUX_Start
B_LUX_Stop          SYMBOL "B_LUX_Stop"
??B_LUX_Stop?relay  SYMBOL "?relay", B_LUX_Stop

        EXTERN Delay_ms
        FUNCTION Delay_ms,0202H
        ARGFRAME ISTACK, 2, STACK
        ARGFRAME PSTACK, 0, STACK
        ARGFRAME XSTACK, 16, STACK
        ARGFRAME IOVERLAY, 0, STATIC
        ARGFRAME DOVERLAY, 0, STATIC
        EXTERN ??Delay_ms?relay
        FUNCTION ??Delay_ms?relay,00H

// C:\Users\Administrator\Desktop\28\ZStack-CC2530-2.3.0-1.4.0\Projects\zstack\Samples\SampleApp\Source\light.c
//    1 //***************************************
//    2 // B_LUX_V20采集程序
//    3 //****************************************
//    4 #include  <math.h>    //Keil library  
//    5 #include  <stdio.h>   //Keil library
//    6 #include "light.h"

        ASEGN SFR_AN:DATA:NOROOT,090H
// union <unnamed> volatile __sfr _A_P1
_A_P1:
        DATA8
        DS 1

        ASEGN SFR_AN:DATA:NOROOT,0f4H
// unsigned char volatile __sfr P1SEL
P1SEL:
        DATA8
        DS 1

        ASEGN SFR_AN:DATA:NOROOT,0feH
// unsigned char volatile __sfr P1DIR
P1DIR:
        DATA8
        DS 1
//    7 #include "OnBoard.h"
//    8 #include "DHT11.h"

        RSEG XDATA_Z:XDATA:NOROOT(0)
        DATA8
//    9 unsigned char    BUF_0[8];                       //接收数据缓存区      	
BUF_0:
        DS 8
        REQUIRE __INIT_XDATA_Z

        RSEG XDATA_Z:XDATA:NOROOT(0)
        DATA16
//   10 unsigned int   dis_data_0;                     //变量
dis_data_0:
        DS 2
        REQUIRE __INIT_XDATA_Z
//   11 
//   12 /*------------------------------------------------
//   13 ---------------------
//   14  功能描述: 延时纳秒 不同的工作环境,需要调整此函数
//   15  参数说明: 无	
//   16  函数返回: 无
//   17  ---------------------------------------------------------------------*/
//   18 /*void B_LUX_delay_nms(unsigned int k)	
//   19 {						
//   20   unsigned int i,j;				
//   21   for(i=0;i<k;i++)
//   22   {			
//   23     for(j=0;j<6000;j++)			
//   24     {
//   25       ;
//   26     }
//   27   }						
//   28 }	*/				
//   29 
//   30 
//   31 /*---------------------------------------------------------------------
//   32  功能描述: 延时5微秒  不同的工作环境,需要调整此函数
//   33  参数说明: 无	
//   34  函数返回: 无
//   35  ---------------------------------------------------------------------*/

        RSEG BANKED_CODE:CODE:NOROOT(0)
//   36 void B_LUX_Delay5us()
B_LUX_Delay5us:
        CFI Block cfiBlock0 Using cfiCommon0
        CFI Function B_LUX_Delay5us
        CODE
//   37 {
        ; Saved register size: 0
        ; Auto size: 0
//   38   unsigned char n = 5;
        MOV     R0,#0x5
        SJMP    ??B_LUX_Delay5us_0
//   39   
//   40   while (n--)
//   41   {
//   42     asm("NOP");
??B_LUX_Delay5us_1:
        NOP
//   43     asm("NOP");
        NOP
//   44     asm("NOP");
        NOP
//   45     asm("NOP");
        NOP
//   46     asm("NOP");
        NOP
//   47     asm("NOP");
        NOP
//   48     asm("NOP");
        NOP
//   49     asm("NOP");   
        NOP
//   50   }
??B_LUX_Delay5us_0:
        MOV     A,R0
        MOV     R1,A
        MOV     A,#-0x1
        ADD     A,R1
        DEC     R0
        INC     A
        JNZ     ??B_LUX_Delay5us_1
//   51 }
        LJMP    ?BRET
        CFI EndBlock cfiBlock0
//   52 
//   53 /*---------------------------------------------------------------------
//   54  功能描述: 延时5毫秒  不同的工作环境,需要调整此函数
//   55  参数说明: 无	
//   56  函数返回: 无
//   57  ---------------------------------------------------------------------*/

        RSEG BANKED_CODE:CODE:NOROOT(0)
//   58 void B_LUX_Delay5ms()
B_LUX_Delay5ms:
        CFI Block cfiBlock1 Using cfiCommon0
        CFI Function B_LUX_Delay5ms
        CODE
//   59 {
        FUNCALL B_LUX_Delay5ms, B_LUX_Delay5us
        LOCFRAME ISTACK, 0, STACK
        LOCFRAME PSTACK, 0, STACK
        LOCFRAME XSTACK, 9, STACK
        LOCFRAME IOVERLAY, 0, STATIC
        LOCFRAME DOVERLAY, 0, STATIC
        ARGFRAME ISTACK, 0, STACK
        ARGFRAME PSTACK, 0, STACK
        ARGFRAME XSTACK, 9, STACK
        ARGFRAME IOVERLAY, 0, STATIC
        ARGFRAME DOVERLAY, 0, STATIC
        MOV     A,#-0x9
        LCALL   ?BANKED_ENTER_XDATA
        CFI DPH0 load(1, XDATA, add(CFA_XSP16, literal(-1)))
        CFI DPL0 load(1, XDATA, add(CFA_XSP16, literal(-2)))
        CFI ?BRET_EXT load(1, XDATA, add(CFA_XSP16, literal(-3)))
        CFI ?RET_HIGH load(1, XDATA, add(CFA_XSP16, literal(-4)))
        CFI ?RET_LOW load(1, XDATA, add(CFA_XSP16, literal(-5)))
        CFI R7 load(1, XDATA, add(CFA_XSP16, literal(-6)))
        CFI V0 load(1, XDATA, add(CFA_XSP16, literal(-7)))
        CFI VB load(1, XDATA, add(CFA_XSP16, literal(-8)))
        CFI R6 load(1, XDATA, add(CFA_XSP16, literal(-9)))
        CFI CFA_SP SP+0
        CFI CFA_XSP16 add(XSP16, 9)
        ; Saved register size: 9
        ; Auto size: 0
//   60   unsigned int n = 5;
        MOV     R6,#0x5
        MOV     R7,#0x0
//   61   unsigned char i;
//   62   while(n--)
??B_LUX_Delay5ms_0:
        MOV     A,R6
        MOV     R0,A
        MOV     A,R7
        MOV     R1,A
        MOV     A,R0
        ADD     A,#-0x1
        DEC     R6
        MOV     A,R1
        ADDC    A,#-0x1
        MOV     R7,A
        MOV     A,R0
        ORL     A,R1
        JZ      ??B_LUX_Delay5ms_1
//   63   {
//   64     for(i=0;i<200;i++)
        MOV     ?V0 + 0,#-0x38
//   65      B_LUX_Delay5us();
??B_LUX_Delay5ms_2:
        ; Setup parameters for call to function B_LUX_Delay5us
        LCALL   ??B_LUX_Delay5us?relay
        DEC     ?V0 + 0
        MOV     A,?V0 + 0
        JZ      ??B_LUX_Delay5ms_0
        SJMP    ??B_LUX_Delay5ms_2
//   66   }
//   67 }
??B_LUX_Delay5ms_1:
        SJMP    ??Subroutine4_0
        CFI EndBlock cfiBlock1
//   68 
//   69 /*---------------------------------------------------------------------
//   70  功能描述: 起始信号
//   71  参数说明: 无	
//   72  函数返回: 无
//   73  ---------------------------------------------------------------------*/

        RSEG BANKED_CODE:CODE:NOROOT(0)
//   74 void B_LUX_Start()
B_LUX_Start:
        CFI Block cfiBlock2 Using cfiCommon0
        CFI Function B_LUX_Start
        CODE
//   75 {
        FUNCALL B_LUX_Start, B_LUX_Delay5us
        LOCFRAME ISTACK, 2, STACK
        LOCFRAME PSTACK, 0, STACK
        LOCFRAME XSTACK, 0, STACK
        LOCFRAME IOVERLAY, 0, STATIC
        LOCFRAME DOVERLAY, 0, STATIC
        ARGFRAME ISTACK, 2, STACK
        ARGFRAME PSTACK, 0, STACK
        ARGFRAME XSTACK, 0, STACK
        ARGFRAME IOVERLAY, 0, STATIC
        ARGFRAME DOVERLAY, 0, STATIC
        FUNCALL B_LUX_Start, B_LUX_Delay5us
        LOCFRAME ISTACK, 2, STACK
        LOCFRAME PSTACK, 0, STACK
        LOCFRAME XSTACK, 0, STACK
        LOCFRAME IOVERLAY, 0, STATIC
        LOCFRAME DOVERLAY, 0, STATIC
        ARGFRAME ISTACK, 2, STACK
        ARGFRAME PSTACK, 0, STACK
        ARGFRAME XSTACK, 0, STACK
        ARGFRAME IOVERLAY, 0, STATIC
        ARGFRAME DOVERLAY, 0, STATIC
        PUSH    DPL
        CFI DPL0 Frame(CFA_SP, 4)
        CFI CFA_SP SP+-4
        PUSH    DPH
        CFI DPH0 Frame(CFA_SP, 5)
        CFI CFA_SP SP+-5
        ; Saved register size: 2
        ; Auto size: 0
//   76   B_LUX_SDA0_H;                    //拉高数据线
        SETB    0x90.1
//   77   B_LUX_SCL0_H;                    //拉高时钟线
        SETB    0x90.0
//   78   B_LUX_Delay5us();                 //延时
        ; Setup parameters for call to function B_LUX_Delay5us
        LCALL   ??B_LUX_Delay5us?relay
//   79   B_LUX_SDA0_L;                    //产生下降沿
        CLR     0x90.1
//   80   B_LUX_Delay5us();                 //延时
        ; Setup parameters for call to function B_LUX_Delay5us
        LCALL   ?Subroutine3 & 0xFFFF
        CFI EndBlock cfiBlock2
//   81   B_LUX_SCL0_L;                    //拉低时钟线
//   82 }
??CrossCallReturnLabel_2:
        REQUIRE ?Subroutine0
        REQUIRE _A_P1
        ; // Fall through to label ?Subroutine0

        RSEG BANKED_CODE:CODE:NOROOT(0)
?Subroutine0:
        CFI Block cfiBlock3 Using cfiCommon0
        CFI NoFunction
        CFI CFA_SP SP+-5
        CFI DPL0 Frame(CFA_SP, 4)
        CFI DPH0 Frame(CFA_SP, 5)
        POP     DPH
        CFI CFA_SP SP+-4
        CFI DPH0 SameValue
        POP     DPL
        CFI CFA_SP SP+-3
        CFI DPL0 SameValue
        LJMP    ?BRET
        CFI EndBlock cfiBlock3
//   83 
//   84 /*---------------------------------------------------------------------
//   85  功能描述: 停止信号
//   86  参数说明: 无	
//   87  函数返回: 无
//   88  ---------------------------------------------------------------------*/

        RSEG BANKED_CODE:CODE:NOROOT(0)
//   89 void B_LUX_Stop()
B_LUX_Stop:
        CFI Block cfiBlock4 Using cfiCommon0
        CFI Function B_LUX_Stop
        CODE
//   90 {
        FUNCALL B_LUX_Stop, B_LUX_Delay5us
        LOCFRAME ISTACK, 2, STACK
        LOCFRAME PSTACK, 0, STACK
        LOCFRAME XSTACK, 0, STACK
        LOCFRAME IOVERLAY, 0, STATIC
        LOCFRAME DOVERLAY, 0, STATIC
        ARGFRAME ISTACK, 2, STACK
        ARGFRAME PSTACK, 0, STACK
        ARGFRAME XSTACK, 0, STACK
        ARGFRAME IOVERLAY, 0, STATIC
        ARGFRAME DOVERLAY, 0, STATIC
        FUNCALL B_LUX_Stop, B_LUX_Delay5us
        LOCFRAME ISTACK, 2, STACK
        LOCFRAME PSTACK, 0, STACK
        LOCFRAME XSTACK, 0, STACK
        LOCFRAME IOVERLAY, 0, STATIC
        LOCFRAME DOVERLAY, 0, STATIC
        ARGFRAME ISTACK, 2, STACK
        ARGFRAME PSTACK, 0, STACK
        ARGFRAME XSTACK, 0, STACK
        ARGFRAME IOVERLAY, 0, STATIC
        ARGFRAME DOVERLAY, 0, STATIC
        FUNCALL B_LUX_Stop, B_LUX_Delay5us
        LOCFRAME ISTACK, 2, STACK
        LOCFRAME PSTACK, 0, STACK
        LOCFRAME XSTACK, 0, STACK
        LOCFRAME IOVERLAY, 0, STATIC
        LOCFRAME DOVERLAY, 0, STATIC
        ARGFRAME ISTACK, 2, STACK
        ARGFRAME PSTACK, 0, STACK
        ARGFRAME XSTACK, 0, STACK
        ARGFRAME IOVERLAY, 0, STATIC
        ARGFRAME DOVERLAY, 0, STATIC
        PUSH    DPL
        CFI DPL0 Frame(CFA_SP, 4)
        CFI CFA_SP SP+-4
        PUSH    DPH
        CFI DPH0 Frame(CFA_SP, 5)
        CFI CFA_SP SP+-5
        ; Saved register size: 2
        ; Auto size: 0
//   91   B_LUX_SDA0_L;                    //拉低数据线
        CLR     0x90.1
//   92   B_LUX_SCL0_H;                    //拉高时钟线
        SETB    0x90.0
//   93   B_LUX_Delay5us();                 //延时
        ; Setup parameters for call to function B_LUX_Delay5us
        LCALL   ??B_LUX_Delay5us?relay
//   94   B_LUX_SDA0_H;                    //产生上升沿
        SETB    0x90.1
//   95   B_LUX_Delay5us();                 //延时
        ; Setup parameters for call to function B_LUX_Delay5us
        LCALL   ?Subroutine2 & 0xFFFF
//   96   B_LUX_SCL0_L;
//   97   B_LUX_Delay5us();
//   98 }
??CrossCallReturnLabel_0:
        SJMP    ?Subroutine0
        CFI EndBlock cfiBlock4
        REQUIRE _A_P1
//   99 
//  100 /*---------------------------------------------------------------------
//  101  功能描述: 发送应答信号
//  102  参数说明: ack - 应答信号(0:ACK 1:NAK)
//  103  函数返回: 无
//  104  ---------------------------------------------------------------------*/

        RSEG BANKED_CODE:CODE:NOROOT(0)
//  105 void B_LUX_SendACK(unsigned char ack)
B_LUX_SendACK:
        CFI Block cfiBlock5 Using cfiCommon0
        CFI Function B_LUX_SendACK
        CODE
//  106 {
        FUNCALL B_LUX_SendACK, B_LUX_Delay5us
        LOCFRAME ISTACK, 0, STACK
        LOCFRAME PSTACK, 0, STACK
        LOCFRAME XSTACK, 9, STACK
        LOCFRAME IOVERLAY, 0, STATIC
        LOCFRAME DOVERLAY, 0, STATIC
        ARGFRAME ISTACK, 0, STACK
        ARGFRAME PSTACK, 0, STACK
        ARGFRAME XSTACK, 9, STACK
        ARGFRAME IOVERLAY, 0, STATIC
        ARGFRAME DOVERLAY, 0, STATIC
        FUNCALL B_LUX_SendACK, B_LUX_Delay5us
        LOCFRAME ISTACK, 0, STACK
        LOCFRAME PSTACK, 0, STACK
        LOCFRAME XSTACK, 9, STACK
        LOCFRAME IOVERLAY, 0, STATIC
        LOCFRAME DOVERLAY, 0, STATIC
        ARGFRAME ISTACK, 0, STACK
        ARGFRAME PSTACK, 0, STACK
        ARGFRAME XSTACK, 9, STACK
        ARGFRAME IOVERLAY, 0, STATIC
        ARGFRAME DOVERLAY, 0, STATIC
        MOV     A,#-0x9
        LCALL   ?BANKED_ENTER_XDATA
        CFI DPH0 load(1, XDATA, add(CFA_XSP16, literal(-1)))
        CFI DPL0 load(1, XDATA, add(CFA_XSP16, literal(-2)))
        CFI ?BRET_EXT load(1, XDATA, add(CFA_XSP16, literal(-3)))
        CFI ?RET_HIGH load(1, XDATA, add(CFA_XSP16, literal(-4)))
        CFI ?RET_LOW load(1, XDATA, add(CFA_XSP16, literal(-5)))
        CFI R7 load(1, XDATA, add(CFA_XSP16, literal(-6)))
        CFI V0 load(1, XDATA, add(CFA_XSP16, literal(-7)))
        CFI VB load(1, XDATA, add(CFA_XSP16, literal(-8)))
        CFI R6 load(1, XDATA, add(CFA_XSP16, literal(-9)))
        CFI CFA_SP SP+0
        CFI CFA_XSP16 add(XSP16, 9)
        ; Saved register size: 9
        ; Auto size: 0
        MOV     A,R1
//  107   if (ack&0x01)	B_LUX_SDA0_H;		 //写应答信号
        MOV     C,0xE0 /* A   */.0
        JNC     ??B_LUX_SendACK_0
        SETB    0x90.1
        SJMP    ??B_LUX_SendACK_1
//  108   else	B_LUX_SDA0_L;
??B_LUX_SendACK_0:
        CLR     0x90.1
//  109   
//  110   B_LUX_SCL0_H;                    //拉高时钟线
??B_LUX_SendACK_1:
        SETB    0x90.0
//  111   B_LUX_Delay5us();                 //延时
        ; Setup parameters for call to function B_LUX_Delay5us
        LCALL   ?Subroutine3 & 0xFFFF
//  112   B_LUX_SCL0_L;                    //拉低时钟线
//  113   B_LUX_SDA0_H;
??CrossCallReturnLabel_3:
        SETB    0x90.1
//  114   B_LUX_Delay5us();                 //延时
        ; Setup parameters for call to function B_LUX_Delay5us
        LCALL   ??B_LUX_Delay5us?relay
//  115 }
        SJMP    ??Subroutine4_0
        CFI EndBlock cfiBlock5
        REQUIRE _A_P1
//  116 
//  117 /*---------------------------------------------------------------------
//  118  功能描述: 接收应答信号
//  119  参数说明: 无
//  120  函数返回: 返回应答信号
//  121  ---------------------------------------------------------------------*/

        RSEG BANKED_CODE:CODE:NOROOT(0)
?Subroutine1:
        CFI Block cfiBlock6 Using cfiCommon0
        CFI NoFunction
        CFI CFA_SP SP+0
        CFI CFA_XSP16 add(XSP16, 9)
        CFI VB load(1, XDATA, add(CFA_XSP16, literal(-8)))
        CFI DPL0 load(1, XDATA, add(CFA_XSP16, literal(-2)))
        CFI DPH0 load(1, XDATA, add(CFA_XSP16, literal(-1)))
        CFI R6 load(1, XDATA, add(CFA_XSP16, literal(-9)))
        CFI R7 load(1, XDATA, add(CFA_XSP16, literal(-6)))
        CFI V0 load(1, XDATA, add(CFA_XSP16, literal(-7)))
        CFI ?BRET_EXT load(1, XDATA, add(CFA_XSP16, literal(-3)))
        CFI ?RET_HIGH load(1, XDATA, add(CFA_XSP16, literal(-4)))
        CFI ?RET_LOW load(1, XDATA, add(CFA_XSP16, literal(-5)))
        MOV     R1,A
        CFI EndBlock cfiBlock6
        REQUIRE ??Subroutine4_0
        ; // Fall through to label ??Subroutine4_0

        RSEG BANKED_CODE:CODE:NOROOT(0)
??Subroutine4_0:
        CFI Block cfiBlock7 Using cfiCommon0
        CFI NoFunction
        CFI CFA_SP SP+0
        CFI CFA_XSP16 add(XSP16, 9)
        CFI VB load(1, XDATA, add(CFA_XSP16, literal(-8)))
        CFI DPL0 load(1, XDATA, add(CFA_XSP16, literal(-2)))
        CFI DPH0 load(1, XDATA, add(CFA_XSP16, literal(-1)))
        CFI R6 load(1, XDATA, add(CFA_XSP16, literal(-9)))
        CFI R7 load(1, XDATA, add(CFA_XSP16, literal(-6)))
        CFI V0 load(1, XDATA, add(CFA_XSP16, literal(-7)))
        CFI ?BRET_EXT load(1, XDATA, add(CFA_XSP16, literal(-3)))
        CFI ?RET_HIGH load(1, XDATA, add(CFA_XSP16, literal(-4)))
        CFI ?RET_LOW load(1, XDATA, add(CFA_XSP16, literal(-5)))
        MOV     R7,#0x1
        LJMP    ?BANKED_LEAVE_XDATA
        CFI EndBlock cfiBlock7

        RSEG BANKED_CODE:CODE:NOROOT(0)
//  122 unsigned char B_LUX_RecvACK()
B_LUX_RecvACK:
        CFI Block cfiBlock8 Using cfiCommon0
        CFI Function B_LUX_RecvACK
        CODE
//  123 {
        FUNCALL B_LUX_RecvACK, B_LUX_Delay5us
        LOCFRAME ISTACK, 0, STACK
        LOCFRAME PSTACK, 0, STACK
        LOCFRAME XSTACK, 9, STACK
        LOCFRAME IOVERLAY, 0, STATIC
        LOCFRAME DOVERLAY, 0, STATIC
        ARGFRAME ISTACK, 0, STACK
        ARGFRAME PSTACK, 0, STACK
        ARGFRAME XSTACK, 9, STACK
        ARGFRAME IOVERLAY, 0, STATIC
        ARGFRAME DOVERLAY, 0, STATIC
        FUNCALL B_LUX_RecvACK, B_LUX_Delay5us
        LOCFRAME ISTACK, 0, STACK
        LOCFRAME PSTACK, 0, STACK
        LOCFRAME XSTACK, 9, STACK
        LOCFRAME IOVERLAY, 0, STATIC
        LOCFRAME DOVERLAY, 0, STATIC
        ARGFRAME ISTACK, 0, STACK
        ARGFRAME PSTACK, 0, STACK
        ARGFRAME XSTACK, 9, STACK
        ARGFRAME IOVERLAY, 0, STATIC
        ARGFRAME DOVERLAY, 0, STATIC
        MOV     A,#-0x9
        LCALL   ?BANKED_ENTER_XDATA
        CFI DPH0 load(1, XDATA, add(CFA_XSP16, literal(-1)))
        CFI DPL0 load(1, XDATA, add(CFA_XSP16, literal(-2)))
        CFI ?BRET_EXT load(1, XDATA, add(CFA_XSP16, literal(-3)))
        CFI ?RET_HIGH load(1, XDATA, add(CFA_XSP16, literal(-4)))
        CFI ?RET_LOW load(1, XDATA, add(CFA_XSP16, literal(-5)))
        CFI R7 load(1, XDATA, add(CFA_XSP16, literal(-6)))
        CFI V0 load(1, XDATA, add(CFA_XSP16, literal(-7)))
        CFI VB load(1, XDATA, add(CFA_XSP16, literal(-8)))
        CFI R6 load(1, XDATA, add(CFA_XSP16, literal(-9)))
        CFI CFA_SP SP+0
        CFI CFA_XSP16 add(XSP16, 9)
        ; Saved register size: 9
        ; Auto size: 0
//  124   unsigned char CY = 0x00;
//  125   B_LUX_SDA0_H;
        SETB    0x90.1
//  126   
//  127   B_LUX_SDA0_I;
        ANL     0xfe,#0xfd
//  128   
//  129   B_LUX_SCL0_H;              //拉高时钟线
        SETB    0x90.0
//  130   B_LUX_Delay5us();                 //延时
        ; Setup parameters for call to function B_LUX_Delay5us
        LCALL   ??B_LUX_Delay5us?relay
//  131   
//  132   
//  133   CY |= B_LUX_SDA0_DAT;    //读应答信号
        MOV     A,0x90
        MOV     R6,A
//  134   
//  135   B_LUX_Delay5us();                 //延时
        ; Setup parameters for call to function B_LUX_Delay5us
        LCALL   ?Subroutine3 & 0xFFFF
//  136   
//  137   B_LUX_SCL0_L;              //拉低时钟线
//  138   
//  139   B_LUX_SDA0_O;
??CrossCallReturnLabel_4:
        ORL     0xfe,#0x2
//  140   
//  141   return CY;
        MOV     A,R6
        MOV     C,0xE0 /* A   */.1
        CLR     A
        RLC     A
        SJMP    ?Subroutine1
        CFI EndBlock cfiBlock8
        REQUIRE _A_P1
        REQUIRE P1DIR
//  142 }

        RSEG BANKED_CODE:CODE:NOROOT(0)
?Subroutine3:
        CFI Block cfiCond9 Using cfiCommon0
        CFI NoFunction
        CFI Conditional ??CrossCallReturnLabel_2
        CFI DPL0 Frame(CFA_SP, 4)
        CFI DPH0 Frame(CFA_SP, 5)
        CFI CFA_SP SP+-5
        CFI Block cfiCond10 Using cfiCommon0
        CFI (cfiCond10) NoFunction
        CFI (cfiCond10) Conditional ??CrossCallReturnLabel_3
        CFI (cfiCond10) R6 load(1, XDATA, add(CFA_XSP16, literal(-9)))
        CFI (cfiCond10) VB load(1, XDATA, add(CFA_XSP16, literal(-8)))
        CFI (cfiCond10) V0 load(1, XDATA, add(CFA_XSP16, literal(-7)))
        CFI (cfiCond10) R7 load(1, XDATA, add(CFA_XSP16, literal(-6)))
        CFI (cfiCond10) ?RET_LOW load(1, XDATA, add(CFA_XSP16, literal(-5)))
        CFI (cfiCond10) ?RET_HIGH load(1, XDATA, add(CFA_XSP16, literal(-4)))
        CFI (cfiCond10) ?BRET_EXT load(1, XDATA, add(CFA_XSP16, literal(-3)))
        CFI (cfiCond10) DPL0 load(1, XDATA, add(CFA_XSP16, literal(-2)))
        CFI (cfiCond10) DPH0 load(1, XDATA, add(CFA_XSP16, literal(-1)))
        CFI (cfiCond10) CFA_SP SP+0
        CFI (cfiCond10) CFA_XSP16 add(XSP16, 9)
        CFI Block cfiCond11 Using cfiCommon0
        CFI (cfiCond11) NoFunction
        CFI (cfiCond11) Conditional ??CrossCallReturnLabel_4
        CFI (cfiCond11) R6 load(1, XDATA, add(CFA_XSP16, literal(-9)))
        CFI (cfiCond11) VB load(1, XDATA, add(CFA_XSP16, literal(-8)))
        CFI (cfiCond11) V0 load(1, XDATA, add(CFA_XSP16, literal(-7)))
        CFI (cfiCond11) R7 load(1, XDATA, add(CFA_XSP16, literal(-6)))
        CFI (cfiCond11) ?RET_LOW load(1, XDATA, add(CFA_XSP16, literal(-5)))
        CFI (cfiCond11) ?RET_HIGH load(1, XDATA, add(CFA_XSP16, literal(-4)))
        CFI (cfiCond11) ?BRET_EXT load(1, XDATA, add(CFA_XSP16, literal(-3)))
        CFI (cfiCond11) DPL0 load(1, XDATA, add(CFA_XSP16, literal(-2)))
        CFI (cfiCond11) DPH0 load(1, XDATA, add(CFA_XSP16, literal(-1)))
        CFI (cfiCond11) CFA_SP SP+0
        CFI (cfiCond11) CFA_XSP16 add(XSP16, 9)
        CFI Block cfiCond12 Using cfiCommon0
        CFI (cfiCond12) NoFunction
        CFI (cfiCond12) Conditional ??CrossCallReturnLabel_5, ??CrossCallReturnLabel_0
        CFI (cfiCond12) DPL0 Frame(CFA_SP, 4)
        CFI (cfiCond12) DPH0 Frame(CFA_SP, 5)
        CFI (cfiCond12) CFA_SP SP+-5
        CFI Block cfiCond13 Using cfiCommon0
        CFI (cfiCond13) NoFunction
        CFI (cfiCond13) Conditional ??CrossCallReturnLabel_5, ??CrossCallReturnLabel_1
        CFI (cfiCond13) R6 load(1, XDATA, add(CFA_XSP16, literal(-9)))
        CFI (cfiCond13) VB load(1, XDATA, add(CFA_XSP16, literal(-8)))
        CFI (cfiCond13) V0 load(1, XDATA, add(CFA_XSP16, literal(-7)))
        CFI (cfiCond13) R7 load(1, XDATA, add(CFA_XSP16, literal(-6)))
        CFI (cfiCond13) ?RET_LOW load(1, XDATA, add(CFA_XSP16, literal(-5)))
        CFI (cfiCond13) ?RET_HIGH load(1, XDATA, add(CFA_XSP16, literal(-4)))
        CFI (cfiCond13) ?BRET_EXT load(1, XDATA, add(CFA_XSP16, literal(-3)))
        CFI (cfiCond13) DPL0 load(1, XDATA, add(CFA_XSP16, literal(-2)))
        CFI (cfiCond13) DPH0 load(1, XDATA, add(CFA_XSP16, literal(-1)))
        CFI (cfiCond13) CFA_SP SP+0
        CFI (cfiCond13) CFA_XSP16 add(XSP16, 9)
        CFI Block cfiPicker14 Using cfiCommon1
        CFI (cfiPicker14) NoFunction
        CFI (cfiPicker14) Picker
        LCALL   ??B_LUX_Delay5us?relay
        CLR     0x90.0
        RET
        CFI EndBlock cfiCond9
        CFI EndBlock cfiCond10
        CFI EndBlock cfiCond11
        CFI EndBlock cfiCond12
        CFI EndBlock cfiCond13
        CFI EndBlock cfiPicker14
//  143 
//  144 /*---------------------------------------------------------------------
//  145  功能描述: 向IIC总线发送一个字节数据
//  146  参数说明: dat - 写字节
//  147  函数返回: 无
//  148  ---------------------------------------------------------------------*/

        RSEG BANKED_CODE:CODE:NOROOT(0)
//  149 void B_LUX_SendByte(unsigned char dat)
B_LUX_SendByte:
        CFI Block cfiBlock15 Using cfiCommon0
        CFI Function B_LUX_SendByte
        CODE
//  150 {
        FUNCALL B_LUX_SendByte, B_LUX_Delay5us
        LOCFRAME ISTACK, 0, STACK
        LOCFRAME PSTACK, 0, STACK
        LOCFRAME XSTACK, 9, STACK
        LOCFRAME IOVERLAY, 0, STATIC
        LOCFRAME DOVERLAY, 0, STATIC
        ARGFRAME ISTACK, 0, STACK
        ARGFRAME PSTACK, 0, STACK
        ARGFRAME XSTACK, 9, STACK
        ARGFRAME IOVERLAY, 0, STATIC
        ARGFRAME DOVERLAY, 0, STATIC
        FUNCALL B_LUX_SendByte, B_LUX_Delay5us
        LOCFRAME ISTACK, 0, STACK
        LOCFRAME PSTACK, 0, STACK
        LOCFRAME XSTACK, 9, STACK
        LOCFRAME IOVERLAY, 0, STATIC
        LOCFRAME DOVERLAY, 0, STATIC
        ARGFRAME ISTACK, 0, STACK
        ARGFRAME PSTACK, 0, STACK
        ARGFRAME XSTACK, 9, STACK
        ARGFRAME IOVERLAY, 0, STATIC
        ARGFRAME DOVERLAY, 0, STATIC
        FUNCALL B_LUX_SendByte, B_LUX_Delay5us
        LOCFRAME ISTACK, 0, STACK
        LOCFRAME PSTACK, 0, STACK
        LOCFRAME XSTACK, 9, STACK
        LOCFRAME IOVERLAY, 0, STATIC
        LOCFRAME DOVERLAY, 0, STATIC
        ARGFRAME ISTACK, 0, STACK
        ARGFRAME PSTACK, 0, STACK
        ARGFRAME XSTACK, 9, STACK
        ARGFRAME IOVERLAY, 0, STATIC
        ARGFRAME DOVERLAY, 0, STATIC
        FUNCALL B_LUX_SendByte, B_LUX_RecvACK
        LOCFRAME ISTACK, 0, STACK
        LOCFRAME PSTACK, 0, STACK
        LOCFRAME XSTACK, 9, STACK
        LOCFRAME IOVERLAY, 0, STATIC
        LOCFRAME DOVERLAY, 0, STATIC
        ARGFRAME ISTACK, 0, STACK
        ARGFRAME PSTACK, 0, STACK
        ARGFRAME XSTACK, 9, STACK
        ARGFRAME IOVERLAY, 0, STATIC
        ARGFRAME DOVERLAY, 0, STATIC
        MOV     A,#-0x9
        LCALL   ?BANKED_ENTER_XDATA
        CFI DPH0 load(1, XDATA, add(CFA_XSP16, literal(-1)))
        CFI DPL0 load(1, XDATA, add(CFA_XSP16, literal(-2)))
        CFI ?BRET_EXT load(1, XDATA, add(CFA_XSP16, literal(-3)))
        CFI ?RET_HIGH load(1, XDATA, add(CFA_XSP16, literal(-4)))
        CFI ?RET_LOW load(1, XDATA, add(CFA_XSP16, literal(-5)))
        CFI R7 load(1, XDATA, add(CFA_XSP16, literal(-6)))
        CFI V0 load(1, XDATA, add(CFA_XSP16, literal(-7)))
        CFI VB load(1, XDATA, add(CFA_XSP16, literal(-8)))
        CFI R6 load(1, XDATA, add(CFA_XSP16, literal(-9)))
        CFI CFA_SP SP+0
        CFI CFA_XSP16 add(XSP16, 9)
        ; Saved register size: 9
        ; Auto size: 0
        MOV     A,R1
        MOV     R7,A
//  151   unsigned char i;
//  152   
//  153   for (i=0; i<8; i++)         			//8位计数器
        MOV     R6,#0x8
//  154   {
//  155     if (dat&0x80)	B_LUX_SDA0_H;
??B_LUX_SendByte_0:
        MOV     A,R7
        MOV     C,0xE0 /* A   */.7
        JNC     ??B_LUX_SendByte_1
        SETB    0x90.1
        SJMP    ??B_LUX_SendByte_2
//  156     else	B_LUX_SDA0_L;              //送数据口
??B_LUX_SendByte_1:
        CLR     0x90.1
//  157     
//  158     B_LUX_Delay5us();             			//延时
??B_LUX_SendByte_2:
        ; Setup parameters for call to function B_LUX_Delay5us
        LCALL   ??B_LUX_Delay5us?relay
//  159     B_LUX_SCL0_H;                		//拉高时钟线
        SETB    0x90.0
//  160     B_LUX_Delay5us();             			//延时
        ; Setup parameters for call to function B_LUX_Delay5us
        LCALL   ?Subroutine2 & 0xFFFF
//  161     B_LUX_SCL0_L;                		//拉低时钟线
//  162     B_LUX_Delay5us();             			//延时
//  163     dat <<= 1;              			//移出数据的最高位
??CrossCallReturnLabel_1:
        MOV     A,R7
        CLR     C
        RLC     A
        MOV     R7,A
//  164   }
        DEC     R6
        MOV     A,R6
        JNZ     ??B_LUX_SendByte_0
//  165   
//  166   B_LUX_RecvACK();
        ; Setup parameters for call to function B_LUX_RecvACK
        LCALL   ??B_LUX_RecvACK?relay
//  167 }
        SJMP    ??Subroutine4_0
        CFI EndBlock cfiBlock15
        REQUIRE _A_P1

        RSEG BANKED_CODE:CODE:NOROOT(0)
?Subroutine2:
        CFI Block cfiCond16 Using cfiCommon0
        CFI NoFunction
        CFI Conditional ??CrossCallReturnLabel_0
        CFI DPL0 Frame(CFA_SP, 4)
        CFI DPH0 Frame(CFA_SP, 5)
        CFI CFA_SP SP+-5
        CFI Block cfiCond17 Using cfiCommon0
        CFI (cfiCond17) NoFunction
        CFI (cfiCond17) Conditional ??CrossCallReturnLabel_1
        CFI (cfiCond17) R6 load(1, XDATA, add(CFA_XSP16, literal(-9)))
        CFI (cfiCond17) VB load(1, XDATA, add(CFA_XSP16, literal(-8)))
        CFI (cfiCond17) V0 load(1, XDATA, add(CFA_XSP16, literal(-7)))
        CFI (cfiCond17) R7 load(1, XDATA, add(CFA_XSP16, literal(-6)))
        CFI (cfiCond17) ?RET_LOW load(1, XDATA, add(CFA_XSP16, literal(-5)))
        CFI (cfiCond17) ?RET_HIGH load(1, XDATA, add(CFA_XSP16, literal(-4)))
        CFI (cfiCond17) ?BRET_EXT load(1, XDATA, add(CFA_XSP16, literal(-3)))
        CFI (cfiCond17) DPL0 load(1, XDATA, add(CFA_XSP16, literal(-2)))
        CFI (cfiCond17) DPH0 load(1, XDATA, add(CFA_XSP16, literal(-1)))
        CFI (cfiCond17) CFA_SP SP+0
        CFI (cfiCond17) CFA_XSP16 add(XSP16, 9)
        CFI Block cfiPicker18 Using cfiCommon1
        CFI (cfiPicker18) NoFunction
        CFI (cfiPicker18) Picker
        LCALL   ?Subroutine3 & 0xFFFF
??CrossCallReturnLabel_5:
        ; Setup parameters for call to function B_LUX_Delay5us
        ; Setup parameters for call to function B_LUX_Delay5us
        LCALL   ??B_LUX_Delay5us?relay
        RET
        CFI EndBlock cfiCond16
        CFI EndBlock cfiCond17
        CFI EndBlock cfiPicker18
//  168 
//  169 /*---------------------------------------------------------------------
//  170  功能描述: 从IIC总线接收一个字节数据
//  171  参数说明: 无
//  172  函数返回: 接收字节
//  173  ---------------------------------------------------------------------*/

        RSEG BANKED_CODE:CODE:NOROOT(0)
//  174 unsigned char B_LUX_RecvByte()
B_LUX_RecvByte:
        CFI Block cfiBlock19 Using cfiCommon0
        CFI Function B_LUX_RecvByte
        CODE
//  175 {
        FUNCALL B_LUX_RecvByte, B_LUX_Delay5us
        LOCFRAME ISTACK, 0, STACK
        LOCFRAME PSTACK, 0, STACK
        LOCFRAME XSTACK, 9, STACK
        LOCFRAME IOVERLAY, 0, STATIC
        LOCFRAME DOVERLAY, 0, STATIC
        ARGFRAME ISTACK, 0, STACK
        ARGFRAME PSTACK, 0, STACK
        ARGFRAME XSTACK, 9, STACK
        ARGFRAME IOVERLAY, 0, STATIC
        ARGFRAME DOVERLAY, 0, STATIC
        FUNCALL B_LUX_RecvByte, B_LUX_Delay5us
        LOCFRAME ISTACK, 0, STACK
        LOCFRAME PSTACK, 0, STACK
        LOCFRAME XSTACK, 9, STACK
        LOCFRAME IOVERLAY, 0, STATIC
        LOCFRAME DOVERLAY, 0, STATIC
        ARGFRAME ISTACK, 0, STACK
        ARGFRAME PSTACK, 0, STACK
        ARGFRAME XSTACK, 9, STACK
        ARGFRAME IOVERLAY, 0, STATIC
        ARGFRAME DOVERLAY, 0, STATIC
        MOV     A,#-0x9
        LCALL   ?BANKED_ENTER_XDATA
        CFI DPH0 load(1, XDATA, add(CFA_XSP16, literal(-1)))
        CFI DPL0 load(1, XDATA, add(CFA_XSP16, literal(-2)))
        CFI ?BRET_EXT load(1, XDATA, add(CFA_XSP16, literal(-3)))
        CFI ?RET_HIGH load(1, XDATA, add(CFA_XSP16, literal(-4)))
        CFI ?RET_LOW load(1, XDATA, add(CFA_XSP16, literal(-5)))
        CFI R7 load(1, XDATA, add(CFA_XSP16, literal(-6)))
        CFI V0 load(1, XDATA, add(CFA_XSP16, literal(-7)))
        CFI VB load(1, XDATA, add(CFA_XSP16, literal(-8)))
        CFI R6 load(1, XDATA, add(CFA_XSP16, literal(-9)))
        CFI CFA_SP SP+0
        CFI CFA_XSP16 add(XSP16, 9)
        ; Saved register size: 9
        ; Auto size: 0
//  176   unsigned char i;
//  177   unsigned char dat = 0;
        MOV     R6,#0x0
//  178   B_LUX_SDA0_I;
        ANL     0xfe,#0xfd
//  179   
//  180   B_LUX_SDA0_H;                  //使能内部上拉,准备读取数据,
        SETB    0x90.1
//  181   for (i=0; i<8; i++)         	//8位计数器
        MOV     R7,#0x8
//  182   {
//  183     B_LUX_SCL0_H;              //拉高时钟线
??B_LUX_RecvByte_0:
        SETB    0x90.0
//  184     B_LUX_Delay5us();             	//延时
        ; Setup parameters for call to function B_LUX_Delay5us
        LCALL   ??B_LUX_Delay5us?relay
//  185     dat |= B_LUX_SDA0_DAT;     //读数据               
        MOV     A,0x90
        MOV     ?V0 + 0,A
//  186     B_LUX_SCL0_L;              //拉低时钟线
        CLR     0x90.0
//  187     B_LUX_Delay5us();             	//延时
        ; Setup parameters for call to function B_LUX_Delay5us
        LCALL   ??B_LUX_Delay5us?relay
//  188     
//  189     dat <<= 1;	
        MOV     A,#0x2
        ANL     A,?V0 + 0
        MOV     R0,A
        MOV     A,R6
        CLR     C
        RLC     A
        ORL     A,R0
        MOV     R6,A
//  190   }
        DEC     R7
        MOV     A,R7
        JNZ     ??B_LUX_RecvByte_0
//  191   B_LUX_SDA0_O;
        ORL     0xfe,#0x2
//  192   
//  193   return dat;
        MOV     A,R6
        LJMP    ?Subroutine1 & 0xFFFF
        CFI EndBlock cfiBlock19
        REQUIRE P1DIR
        REQUIRE _A_P1
//  194 }
//  195 
//  196 /*---------------------------------------------------------------------
//  197  功能描述: 写BH1750
//  198  参数说明: REG_Address - 寄存器地址
//  199  函数返回: 无
//  200  ---------------------------------------------------------------------*/

        RSEG BANKED_CODE:CODE:NOROOT(0)
//  201 void B_LUX_Single_Write(unsigned char REG_Address)
B_LUX_Single_Write:
        CFI Block cfiBlock20 Using cfiCommon0
        CFI Function B_LUX_Single_Write
        CODE
//  202 {
        FUNCALL B_LUX_Single_Write, B_LUX_Start
        LOCFRAME ISTACK, 0, STACK
        LOCFRAME PSTACK, 0, STACK
        LOCFRAME XSTACK, 9, STACK
        LOCFRAME IOVERLAY, 0, STATIC
        LOCFRAME DOVERLAY, 0, STATIC
        ARGFRAME ISTACK, 0, STACK
        ARGFRAME PSTACK, 0, STACK
        ARGFRAME XSTACK, 9, STACK
        ARGFRAME IOVERLAY, 0, STATIC
        ARGFRAME DOVERLAY, 0, STATIC
        FUNCALL B_LUX_Single_Write, B_LUX_SendByte
        LOCFRAME ISTACK, 0, STACK
        LOCFRAME PSTACK, 0, STACK
        LOCFRAME XSTACK, 9, STACK
        LOCFRAME IOVERLAY, 0, STATIC
        LOCFRAME DOVERLAY, 0, STATIC
        ARGFRAME ISTACK, 0, STACK
        ARGFRAME PSTACK, 0, STACK
        ARGFRAME XSTACK, 9, STACK
        ARGFRAME IOVERLAY, 0, STATIC
        ARGFRAME DOVERLAY, 0, STATIC
        FUNCALL B_LUX_Single_Write, B_LUX_SendByte
        LOCFRAME ISTACK, 0, STACK
        LOCFRAME PSTACK, 0, STACK
        LOCFRAME XSTACK, 9, STACK
        LOCFRAME IOVERLAY, 0, STATIC
        LOCFRAME DOVERLAY, 0, STATIC
        ARGFRAME ISTACK, 0, STACK
        ARGFRAME PSTACK, 0, STACK
        ARGFRAME XSTACK, 9, STACK
        ARGFRAME IOVERLAY, 0, STATIC
        ARGFRAME DOVERLAY, 0, STATIC
        FUNCALL B_LUX_Single_Write, B_LUX_Stop
        LOCFRAME ISTACK, 0, STACK
        LOCFRAME PSTACK, 0, STACK
        LOCFRAME XSTACK, 9, STACK
        LOCFRAME IOVERLAY, 0, STATIC
        LOCFRAME DOVERLAY, 0, STATIC
        ARGFRAME ISTACK, 0, STACK
        ARGFRAME PSTACK, 0, STACK
        ARGFRAME XSTACK, 9, STACK
        ARGFRAME IOVERLAY, 0, STATIC
        ARGFRAME DOVERLAY, 0, STATIC
        MOV     A,#-0x9
        LCALL   ?BANKED_ENTER_XDATA
        CFI DPH0 load(1, XDATA, add(CFA_XSP16, literal(-1)))
        CFI DPL0 load(1, XDATA, add(CFA_XSP16, literal(-2)))
        CFI ?BRET_EXT load(1, XDATA, add(CFA_XSP16, literal(-3)))
        CFI ?RET_HIGH load(1, XDATA, add(CFA_XSP16, literal(-4)))
        CFI ?RET_LOW load(1, XDATA, add(CFA_XSP16, literal(-5)))
        CFI R7 load(1, XDATA, add(CFA_XSP16, literal(-6)))
        CFI V0 load(1, XDATA, add(CFA_XSP16, literal(-7)))
        CFI VB load(1, XDATA, add(CFA_XSP16, literal(-8)))
        CFI R6 load(1, XDATA, add(CFA_XSP16, literal(-9)))
        CFI CFA_SP SP+0
        CFI CFA_XSP16 add(XSP16, 9)
        ; Saved register size: 9
        ; Auto size: 0
        MOV     A,R1
        MOV     R6,A
//  203   B_LUX_Start();                  //起始信号
        ; Setup parameters for call to function B_LUX_Start
        LCALL   ??B_LUX_Start?relay
//  204   B_LUX_SendByte(B_LUX_SlaveAddress);   //发送设备地址+写信号
        ; Setup parameters for call to function B_LUX_SendByte
        MOV     R1,#0x46
        LCALL   ??B_LUX_SendByte?relay
//  205   B_LUX_SendByte(REG_Address);    //内部寄存器地址，请参考中文pdf22页 
        ; Setup parameters for call to function B_LUX_SendByte
        MOV     A,R6
        MOV     R1,A
        LCALL   ??B_LUX_SendByte?relay
//  206   //  BH1750_SendByte(REG_data);       //内部寄存器数据，请参考中文pdf22页 
//  207   B_LUX_Stop();                   //发送停止信号
        ; Setup parameters for call to function B_LUX_Stop
        LCALL   ??B_LUX_Stop?relay
//  208 }
        LJMP    ??Subroutine4_0 & 0xFFFF
        CFI EndBlock cfiBlock20
//  209 
//  210 /*---------------------------------------------------------------------
//  211  功能描述: 连续读出BH1750内部数据
//  212  参数说明: 无
//  213  函数返回: 无
//  214  ---------------------------------------------------------------------*/

        RSEG BANKED_CODE:CODE:NOROOT(0)
//  215 void B_LUX_Multiple_read(void)
B_LUX_Multiple_read:
        CFI Block cfiBlock21 Using cfiCommon0
        CFI Function B_LUX_Multiple_read
        CODE
//  216 {   
        FUNCALL B_LUX_Multiple_read, B_LUX_Start
        LOCFRAME ISTACK, 0, STACK
        LOCFRAME PSTACK, 0, STACK
        LOCFRAME XSTACK, 10, STACK
        LOCFRAME IOVERLAY, 0, STATIC
        LOCFRAME DOVERLAY, 0, STATIC
        ARGFRAME ISTACK, 0, STACK
        ARGFRAME PSTACK, 0, STACK
        ARGFRAME XSTACK, 10, STACK
        ARGFRAME IOVERLAY, 0, STATIC
        ARGFRAME DOVERLAY, 0, STATIC
        FUNCALL B_LUX_Multiple_read, B_LUX_SendByte
        LOCFRAME ISTACK, 0, STACK
        LOCFRAME PSTACK, 0, STACK
        LOCFRAME XSTACK, 10, STACK
        LOCFRAME IOVERLAY, 0, STATIC
        LOCFRAME DOVERLAY, 0, STATIC
        ARGFRAME ISTACK, 0, STACK
        ARGFRAME PSTACK, 0, STACK
        ARGFRAME XSTACK, 10, STACK
        ARGFRAME IOVERLAY, 0, STATIC
        ARGFRAME DOVERLAY, 0, STATIC
        FUNCALL B_LUX_Multiple_read, B_LUX_RecvByte
        LOCFRAME ISTACK, 0, STACK
        LOCFRAME PSTACK, 0, STACK
        LOCFRAME XSTACK, 10, STACK
        LOCFRAME IOVERLAY, 0, STATIC
        LOCFRAME DOVERLAY, 0, STATIC
        ARGFRAME ISTACK, 0, STACK
        ARGFRAME PSTACK, 0, STACK
        ARGFRAME XSTACK, 10, STACK
        ARGFRAME IOVERLAY, 0, STATIC
        ARGFRAME DOVERLAY, 0, STATIC
        FUNCALL B_LUX_Multiple_read, B_LUX_SendACK
        LOCFRAME ISTACK, 0, STACK
        LOCFRAME PSTACK, 0, STACK
        LOCFRAME XSTACK, 10, STACK
        LOCFRAME IOVERLAY, 0, STATIC
        LOCFRAME DOVERLAY, 0, STATIC
        ARGFRAME ISTACK, 0, STACK
        ARGFRAME PSTACK, 0, STACK
        ARGFRAME XSTACK, 10, STACK
        ARGFRAME IOVERLAY, 0, STATIC
        ARGFRAME DOVERLAY, 0, STATIC
        FUNCALL B_LUX_Multiple_read, B_LUX_Stop
        LOCFRAME ISTACK, 0, STACK
        LOCFRAME PSTACK, 0, STACK
        LOCFRAME XSTACK, 10, STACK
        LOCFRAME IOVERLAY, 0, STATIC
        LOCFRAME DOVERLAY, 0, STATIC
        ARGFRAME ISTACK, 0, STACK
        ARGFRAME PSTACK, 0, STACK
        ARGFRAME XSTACK, 10, STACK
        ARGFRAME IOVERLAY, 0, STATIC
        ARGFRAME DOVERLAY, 0, STATIC
        FUNCALL B_LUX_Multiple_read, B_LUX_Delay5ms
        LOCFRAME ISTACK, 0, STACK
        LOCFRAME PSTACK, 0, STACK
        LOCFRAME XSTACK, 10, STACK
        LOCFRAME IOVERLAY, 0, STATIC
        LOCFRAME DOVERLAY, 0, STATIC
        ARGFRAME ISTACK, 0, STACK
        ARGFRAME PSTACK, 0, STACK
        ARGFRAME XSTACK, 10, STACK
        ARGFRAME IOVERLAY, 0, STATIC
        ARGFRAME DOVERLAY, 0, STATIC
        MOV     A,#-0xa
        LCALL   ?BANKED_ENTER_XDATA
        CFI DPH0 load(1, XDATA, add(CFA_XSP16, literal(-1)))
        CFI DPL0 load(1, XDATA, add(CFA_XSP16, literal(-2)))
        CFI ?BRET_EXT load(1, XDATA, add(CFA_XSP16, literal(-3)))
        CFI ?RET_HIGH load(1, XDATA, add(CFA_XSP16, literal(-4)))
        CFI ?RET_LOW load(1, XDATA, add(CFA_XSP16, literal(-5)))
        CFI R7 load(1, XDATA, add(CFA_XSP16, literal(-6)))
        CFI V1 load(1, XDATA, add(CFA_XSP16, literal(-7)))
        CFI V0 load(1, XDATA, add(CFA_XSP16, literal(-8)))
        CFI VB load(1, XDATA, add(CFA_XSP16, literal(-9)))
        CFI R6 load(1, XDATA, add(CFA_XSP16, literal(-10)))
        CFI CFA_SP SP+0
        CFI CFA_XSP16 add(XSP16, 10)
        ; Saved register size: 10
        ; Auto size: 0
//  217   unsigned char i;	
//  218   B_LUX_Start();                          //起始信号
        ; Setup parameters for call to function B_LUX_Start
        LCALL   ??B_LUX_Start?relay
//  219   B_LUX_SendByte(B_LUX_SlaveAddress+1);         //发送设备地址+读信号
        ; Setup parameters for call to function B_LUX_SendByte
        MOV     R1,#0x47
        LCALL   ??B_LUX_SendByte?relay
//  220   
//  221   for (i=0; i<3; i++)                        //连续读取6个地址数据，存储中BUF
        MOV     R6,#0x0
//  222   {
//  223     BUF_0[i] = B_LUX_RecvByte();          //BUF[0]存储0x32地址中的数据
??B_LUX_Multiple_read_0:
        ; Setup parameters for call to function B_LUX_RecvByte
        LCALL   ??B_LUX_RecvByte?relay
        MOV     ?V0 + 0,R6
        MOV     A,#BUF_0 & 0xff
        ADD     A,?V0 + 0
        MOV     DPL,A
        MOV     A,#(BUF_0 >> 8) & 0xff
        ADDC    A,#0x0
        MOV     DPH,A
        MOV     A,R1
        MOVX    @DPTR,A
//  224     if (i == 3)
//  225     {
//  226       
//  227       B_LUX_SendACK(1);                   //最后一个数据需要回NOACK
//  228     }
//  229     else
//  230     {		
//  231       B_LUX_SendACK(0);                   //回应ACK
        ; Setup parameters for call to function B_LUX_SendACK
        MOV     R1,#0x0
        LCALL   ??B_LUX_SendACK?relay
//  232     }
//  233   }
        INC     R6
        MOV     A,R6
        CLR     C
        SUBB    A,#0x3
        JC      ??B_LUX_Multiple_read_0
//  234   
//  235   B_LUX_Stop();                           //停止信号
        ; Setup parameters for call to function B_LUX_Stop
        LCALL   ??B_LUX_Stop?relay
//  236   B_LUX_Delay5ms();
        ; Setup parameters for call to function B_LUX_Delay5ms
        LCALL   ??B_LUX_Delay5ms?relay
//  237 }
        MOV     R7,#0x2
        LJMP    ?BANKED_LEAVE_XDATA
        CFI EndBlock cfiBlock21
//  238 
//  239 /*---------------------------------------------------------------------
//  240  功能描述: 初始化光照传感器
//  241  参数说明: 无
//  242  函数返回: 无
//  243  ---------------------------------------------------------------------*/

        RSEG BANKED_CODE:CODE:NOROOT(0)
//  244 void B_LUX_Init()
B_LUX_Init:
        CFI Block cfiBlock22 Using cfiCommon0
        CFI Function B_LUX_Init
        CODE
//  245 {
        FUNCALL B_LUX_Init, Delay_ms
        LOCFRAME ISTACK, 2, STACK
        LOCFRAME PSTACK, 0, STACK
        LOCFRAME XSTACK, 0, STACK
        LOCFRAME IOVERLAY, 0, STATIC
        LOCFRAME DOVERLAY, 0, STATIC
        ARGFRAME ISTACK, 2, STACK
        ARGFRAME PSTACK, 0, STACK
        ARGFRAME XSTACK, 0, STACK
        ARGFRAME IOVERLAY, 0, STATIC
        ARGFRAME DOVERLAY, 0, STATIC
        FUNCALL B_LUX_Init, B_LUX_Single_Write
        LOCFRAME ISTACK, 2, STACK
        LOCFRAME PSTACK, 0, STACK
        LOCFRAME XSTACK, 0, STACK
        LOCFRAME IOVERLAY, 0, STATIC
        LOCFRAME DOVERLAY, 0, STATIC
        ARGFRAME ISTACK, 2, STACK
        ARGFRAME PSTACK, 0, STACK
        ARGFRAME XSTACK, 0, STACK
        ARGFRAME IOVERLAY, 0, STATIC
        ARGFRAME DOVERLAY, 0, STATIC
        PUSH    DPL
        CFI DPL0 Frame(CFA_SP, 4)
        CFI CFA_SP SP+-4
        PUSH    DPH
        CFI DPH0 Frame(CFA_SP, 5)
        CFI CFA_SP SP+-5
        ; Saved register size: 2
        ; Auto size: 0
//  246   
//  247   P1SEL &= ~(0x030);
        ANL     0xf4,#0xcf
//  248   
//  249   B_LUX_SCL0_O;
        ORL     0xfe,#0x1
//  250   B_LUX_SDA0_O;
        ORL     0xfe,#0x2
//  251   
//  252   //B_LUX_delay_nms(100);	    //延时100ms
//  253   Delay_ms(100);
        ; Setup parameters for call to function Delay_ms
        MOV     R2,#0x64
        MOV     R3,#0x0
        LCALL   ??Delay_ms?relay
//  254   B_LUX_Single_Write(0x01); 
        ; Setup parameters for call to function B_LUX_Single_Write
        MOV     R1,#0x1
        LCALL   ??B_LUX_Single_Write?relay
//  255   
//  256 }
        LJMP    ?Subroutine0 & 0xFFFF
        CFI EndBlock cfiBlock22
        REQUIRE P1SEL
        REQUIRE P1DIR
//  257 
//  258 /*---------------------------------------------------------------------
//  259  功能描述: 光照读取函数
//  260  参数说明: 无
//  261  函数返回: 返回光照值
//  262  ---------------------------------------------------------------------*/

        RSEG BANKED_CODE:CODE:NOROOT(0)
//  263 unsigned long B_LUX_GetLux()
B_LUX_GetLux:
        CFI Block cfiBlock23 Using cfiCommon0
        CFI Function B_LUX_GetLux
        CODE
//  264 {  
        FUNCALL B_LUX_GetLux, B_LUX_Single_Write
        LOCFRAME ISTACK, 0, STACK
        LOCFRAME PSTACK, 0, STACK
        LOCFRAME XSTACK, 16, STACK
        LOCFRAME IOVERLAY, 0, STATIC
        LOCFRAME DOVERLAY, 0, STATIC
        ARGFRAME ISTACK, 0, STACK
        ARGFRAME PSTACK, 0, STACK
        ARGFRAME XSTACK, 16, STACK
        ARGFRAME IOVERLAY, 0, STATIC
        ARGFRAME DOVERLAY, 0, STATIC
        FUNCALL B_LUX_GetLux, B_LUX_Single_Write
        LOCFRAME ISTACK, 0, STACK
        LOCFRAME PSTACK, 0, STACK
        LOCFRAME XSTACK, 16, STACK
        LOCFRAME IOVERLAY, 0, STATIC
        LOCFRAME DOVERLAY, 0, STATIC
        ARGFRAME ISTACK, 0, STACK
        ARGFRAME PSTACK, 0, STACK
        ARGFRAME XSTACK, 16, STACK
        ARGFRAME IOVERLAY, 0, STATIC
        ARGFRAME DOVERLAY, 0, STATIC
        FUNCALL B_LUX_GetLux, Delay_ms
        LOCFRAME ISTACK, 0, STACK
        LOCFRAME PSTACK, 0, STACK
        LOCFRAME XSTACK, 16, STACK
        LOCFRAME IOVERLAY, 0, STATIC
        LOCFRAME DOVERLAY, 0, STATIC
        ARGFRAME ISTACK, 0, STACK
        ARGFRAME PSTACK, 0, STACK
        ARGFRAME XSTACK, 16, STACK
        ARGFRAME IOVERLAY, 0, STATIC
        ARGFRAME DOVERLAY, 0, STATIC
        FUNCALL B_LUX_GetLux, B_LUX_Multiple_read
        LOCFRAME ISTACK, 0, STACK
        LOCFRAME PSTACK, 0, STACK
        LOCFRAME XSTACK, 16, STACK
        LOCFRAME IOVERLAY, 0, STATIC
        LOCFRAME DOVERLAY, 0, STATIC
        ARGFRAME ISTACK, 0, STACK
        ARGFRAME PSTACK, 0, STACK
        ARGFRAME XSTACK, 16, STACK
        ARGFRAME IOVERLAY, 0, STATIC
        ARGFRAME DOVERLAY, 0, STATIC
        FUNCALL B_LUX_GetLux, B_LUX_Single_Write
        LOCFRAME ISTACK, 0, STACK
        LOCFRAME PSTACK, 0, STACK
        LOCFRAME XSTACK, 16, STACK
        LOCFRAME IOVERLAY, 0, STATIC
        LOCFRAME DOVERLAY, 0, STATIC
        ARGFRAME ISTACK, 0, STACK
        ARGFRAME PSTACK, 0, STACK
        ARGFRAME XSTACK, 16, STACK
        ARGFRAME IOVERLAY, 0, STATIC
        ARGFRAME DOVERLAY, 0, STATIC
        MOV     A,#-0x10
        LCALL   ?BANKED_ENTER_XDATA
        CFI DPH0 load(1, XDATA, add(CFA_XSP16, literal(-1)))
        CFI DPL0 load(1, XDATA, add(CFA_XSP16, literal(-2)))
        CFI ?BRET_EXT load(1, XDATA, add(CFA_XSP16, literal(-3)))
        CFI ?RET_HIGH load(1, XDATA, add(CFA_XSP16, literal(-4)))
        CFI ?RET_LOW load(1, XDATA, add(CFA_XSP16, literal(-5)))
        CFI R7 load(1, XDATA, add(CFA_XSP16, literal(-6)))
        CFI V7 load(1, XDATA, add(CFA_XSP16, literal(-7)))
        CFI V6 load(1, XDATA, add(CFA_XSP16, literal(-8)))
        CFI V5 load(1, XDATA, add(CFA_XSP16, literal(-9)))
        CFI V4 load(1, XDATA, add(CFA_XSP16, literal(-10)))
        CFI V3 load(1, XDATA, add(CFA_XSP16, literal(-11)))
        CFI V2 load(1, XDATA, add(CFA_XSP16, literal(-12)))
        CFI V1 load(1, XDATA, add(CFA_XSP16, literal(-13)))
        CFI V0 load(1, XDATA, add(CFA_XSP16, literal(-14)))
        CFI VB load(1, XDATA, add(CFA_XSP16, literal(-15)))
        CFI R6 load(1, XDATA, add(CFA_XSP16, literal(-16)))
        CFI CFA_SP SP+0
        CFI CFA_XSP16 add(XSP16, 16)
        ; Saved register size: 16
        ; Auto size: 0
//  265   float temp;
//  266   B_LUX_Single_Write(0x01);   // power on
        ; Setup parameters for call to function B_LUX_Single_Write
        MOV     R1,#0x1
        LCALL   ??B_LUX_Single_Write?relay
//  267   B_LUX_Single_Write(0x10);   // H- resolution mode 
        ; Setup parameters for call to function B_LUX_Single_Write
        MOV     R1,#0x10
        LCALL   ??B_LUX_Single_Write?relay
//  268   
//  269   //B_LUX_delay_nms(180);       //延时180ms
//  270   Delay_ms(180);
        ; Setup parameters for call to function Delay_ms
        MOV     R2,#-0x4c
        MOV     R3,#0x0
        LCALL   ??Delay_ms?relay
//  271   B_LUX_Multiple_read();      //连续读出数据，存储在BUF中
        ; Setup parameters for call to function B_LUX_Multiple_read
        LCALL   ??B_LUX_Multiple_read?relay
//  272   
//  273   B_LUX_Single_Write(0x00);   // power off
        ; Setup parameters for call to function B_LUX_Single_Write
        MOV     R1,#0x0
        LCALL   ??B_LUX_Single_Write?relay
//  274   
//  275   dis_data_0=BUF_0[0];
//  276   dis_data_0=(dis_data_0<<8)+BUF_0[1];//合成数据，即光照数据
        MOV     DPTR,#BUF_0
        MOVX    A,@DPTR
        MOV     R1,A
        INC     DPTR
        MOVX    A,@DPTR
        MOV     DPTR,#dis_data_0
        MOVX    @DPTR,A
        INC     DPTR
        MOV     A,R1
        MOVX    @DPTR,A
//  277   
//  278   temp=(float)dis_data_0/1.2;
//  279   return (unsigned long)(temp*1.4);
        MOV     DPTR,#dis_data_0
        MOVX    A,@DPTR
        MOV     ?V0 + 0,A
        INC     DPTR
        MOVX    A,@DPTR
        MOV     ?V0 + 1,A
        CLR     A
        MOV     ?V0 + 2,A
        MOV     ?V0 + 3,A
        MOV     R0,#?V0 + 0
        LCALL   ?UL_TO_FLT
        MOV     DPTR,#__Constant_3f99999a
        MOV     R0,#?V0 + 4
        LCALL   ?L_MOV_X
        MOV     R0,#?V0 + 0
        MOV     R1,#?V0 + 4
        LCALL   ?FLT_DIV
        MOV     DPTR,#__Constant_3fb33333
        MOV     R0,#?V0 + 4
        LCALL   ?L_MOV_X
        MOV     R0,#?V0 + 0
        MOV     R1,#?V0 + 4
        LCALL   ?FLT_MUL
        MOV     R0,#?V0 + 0
        LCALL   ?FLT_TO_UL
        MOV     R2,?V0 + 0
        MOV     R3,?V0 + 1
        MOV     R4,?V0 + 2
        MOV     R5,?V0 + 3
        MOV     R7,#0x8
        LJMP    ?BANKED_LEAVE_XDATA
        CFI EndBlock cfiBlock23
//  280   //return dis_data_0;
//  281   
//  282 } 

        RSEG XDATA_ROM_C:CONST:REORDER:NOROOT(0)
        DATA32
__Constant_3f99999a:
        DD 3F99999AH

        RSEG XDATA_ROM_C:CONST:REORDER:NOROOT(0)
        DATA32
__Constant_3fb33333:
        DD 3FB33333H

        RSEG BANK_RELAYS:CODE:REORDER:NOROOT(0)
??B_LUX_Delay5us?relay:
        LCALL   ?BDISPATCH
        DATA
        DC24    B_LUX_Delay5us

        RSEG BANK_RELAYS:CODE:REORDER:NOROOT(0)
??B_LUX_Delay5ms?relay:
        LCALL   ?BDISPATCH
        DATA
        DC24    B_LUX_Delay5ms

        RSEG BANK_RELAYS:CODE:REORDER:NOROOT(0)
??B_LUX_Start?relay:
        LCALL   ?BDISPATCH
        DATA
        DC24    B_LUX_Start

        RSEG BANK_RELAYS:CODE:REORDER:NOROOT(0)
??B_LUX_Stop?relay:
        LCALL   ?BDISPATCH
        DATA
        DC24    B_LUX_Stop

        RSEG BANK_RELAYS:CODE:REORDER:NOROOT(0)
??B_LUX_SendACK?relay:
        LCALL   ?BDISPATCH
        DATA
        DC24    B_LUX_SendACK

        RSEG BANK_RELAYS:CODE:REORDER:NOROOT(0)
??B_LUX_RecvACK?relay:
        LCALL   ?BDISPATCH
        DATA
        DC24    B_LUX_RecvACK

        RSEG BANK_RELAYS:CODE:REORDER:NOROOT(0)
??B_LUX_SendByte?relay:
        LCALL   ?BDISPATCH
        DATA
        DC24    B_LUX_SendByte

        RSEG BANK_RELAYS:CODE:REORDER:NOROOT(0)
??B_LUX_RecvByte?relay:
        LCALL   ?BDISPATCH
        DATA
        DC24    B_LUX_RecvByte

        RSEG BANK_RELAYS:CODE:REORDER:NOROOT(0)
??B_LUX_Single_Write?relay:
        LCALL   ?BDISPATCH
        DATA
        DC24    B_LUX_Single_Write

        RSEG BANK_RELAYS:CODE:REORDER:NOROOT(0)
??B_LUX_Multiple_read?relay:
        LCALL   ?BDISPATCH
        DATA
        DC24    B_LUX_Multiple_read

        RSEG BANK_RELAYS:CODE:REORDER:NOROOT(0)
??B_LUX_Init?relay:
        LCALL   ?BDISPATCH
        DATA
        DC24    B_LUX_Init

        RSEG BANK_RELAYS:CODE:REORDER:NOROOT(0)
??B_LUX_GetLux?relay:
        LCALL   ?BDISPATCH
        DATA
        DC24    B_LUX_GetLux

        END
//  283 
// 
// 497 bytes in segment BANKED_CODE
//  72 bytes in segment BANK_RELAYS
//   3 bytes in segment SFR_AN
//   8 bytes in segment XDATA_ROM_C
//  10 bytes in segment XDATA_Z
// 
// 569 bytes of CODE  memory
//   0 bytes of CONST memory (+ 8 bytes shared)
//   0 bytes of DATA  memory (+ 3 bytes shared)
//  10 bytes of XDATA memory
//
//Errors: none
//Warnings: none
